GAS LISTING C:\Users\nesre\AppData\Local\Temp\ccPTohGt.s 			page 1


   1              		.file	"lcd.c"
   2              		.option nopic
   3              		.attribute arch, "rv32i2p0_m2p0_a2p0_c2p0"
   4              		.attribute unaligned_access, 0
   5              		.attribute stack_align, 16
   6              		.text
   7              	.Ltext0:
   8              		.cfi_sections	.debug_frame
   9              		.globl	__floatundidf
  10              		.globl	__floatunsidf
  11              		.globl	__divdf3
  12              		.globl	__muldf3
  13              		.globl	__ltdf2
  14              		.section	.text.lcd_delay_1ms,"ax",@progbits
  15              		.align	1
  16              		.globl	lcd_delay_1ms
  18              	lcd_delay_1ms:
  19              	.LFB2:
  20              		.file 1 "lcd.c"
   1:lcd.c         **** 
   2:lcd.c         **** #include "lcd.h"
   3:lcd.c         **** #include "oledfont.h"
   4:lcd.c         **** 
   5:lcd.c         **** u16 BACK_COLOR;	// Background color
   6:lcd.c         **** 
   7:lcd.c         **** typedef struct{
   8:lcd.c         **** 	u8 configured;
   9:lcd.c         **** 	u8 inverted;
  10:lcd.c         **** 	u8 offset_x;
  11:lcd.c         **** 	u8 offset_y;
  12:lcd.c         **** }lcd_config_t;
  13:lcd.c         **** 
  14:lcd.c         **** lcd_config_t lcd_conf = {0};
  15:lcd.c         **** 
  16:lcd.c         **** 
  17:lcd.c         **** void lcd_delay_1ms(uint32_t count)
  18:lcd.c         **** {
  21              		.loc 1 18 1
  22              		.cfi_startproc
  23              	.LVL0:
  19:lcd.c         **** 	uint64_t start_mtime, delta_mtime;
  24              		.loc 1 19 2
  20:lcd.c         **** 
  21:lcd.c         **** 	// Don't start measuring until we see an mtime tick
  22:lcd.c         **** 	uint64_t tmp = get_timer_value();
  25              		.loc 1 22 2
  18:lcd.c         **** 	uint64_t start_mtime, delta_mtime;
  26              		.loc 1 18 1 is_stmt 0
  27 0000 7971     		addi	sp,sp,-48
  28              	.LCFI0:
  29              		.cfi_def_cfa_offset 48
  30 0002 4AD0     		sw	s2,32(sp)
  31 0004 4ECE     		sw	s3,28(sp)
  32 0006 5AC8     		sw	s6,16(sp)
  33 0008 06D6     		sw	ra,44(sp)
  34 000a 22D4     		sw	s0,40(sp)
  35 000c 26D2     		sw	s1,36(sp)
GAS LISTING C:\Users\nesre\AppData\Local\Temp\ccPTohGt.s 			page 2


  36 000e 52CC     		sw	s4,24(sp)
  37 0010 56CA     		sw	s5,20(sp)
  38 0012 5EC6     		sw	s7,12(sp)
  39 0014 62C4     		sw	s8,8(sp)
  40 0016 66C2     		sw	s9,4(sp)
  41              		.cfi_offset 18, -16
  42              		.cfi_offset 19, -20
  43              		.cfi_offset 22, -32
  44              		.cfi_offset 1, -4
  45              		.cfi_offset 8, -8
  46              		.cfi_offset 9, -12
  47              		.cfi_offset 20, -24
  48              		.cfi_offset 21, -28
  49              		.cfi_offset 23, -36
  50              		.cfi_offset 24, -40
  51              		.cfi_offset 25, -44
  18:lcd.c         **** 	uint64_t start_mtime, delta_mtime;
  52              		.loc 1 18 1
  53 0018 2A8B     		mv	s6,a0
  54              		.loc 1 22 17
  55 001a 97000000 		call	get_timer_value
  55      E7800000 
  56              	.LVL1:
  57 0022 AA89     		mv	s3,a0
  58 0024 2E89     		mv	s2,a1
  59              	.LVL2:
  60              	.L2:
  23:lcd.c         **** 	do {
  61              		.loc 1 23 2 is_stmt 1 discriminator 1
  24:lcd.c         **** 	start_mtime = get_timer_value();
  62              		.loc 1 24 2 discriminator 1
  63              		.loc 1 24 16 is_stmt 0 discriminator 1
  64 0026 97000000 		call	get_timer_value
  64      E7800000 
  65              	.LVL3:
  66 002e AA84     		mv	s1,a0
  67 0030 2E84     		mv	s0,a1
  68              	.LVL4:
  25:lcd.c         **** 	} while (start_mtime == tmp);
  69              		.loc 1 25 2 discriminator 1
  70 0032 6394A900 		bne	s3,a0,.L3
  71 0036 E308B9FE 		beq	s2,a1,.L2
  72              	.L3:
  26:lcd.c         **** 
  27:lcd.c         **** 	do {
  28:lcd.c         **** 	delta_mtime = get_timer_value() - start_mtime;
  29:lcd.c         **** 	}while(delta_mtime <(SystemCoreClock/4000.0 *count ));
  73              		.loc 1 29 38 discriminator 1
  74 003a B7070000 		lui	a5,%hi(.LC0)
  75 003e 03A90700 		lw	s2,%lo(.LC0)(a5)
  76              	.LVL5:
  77 0042 83A94700 		lw	s3,%lo(.LC0+4)(a5)
  78 0046 B70B0000 		lui	s7,%hi(SystemCoreClock)
  79              	.L4:
  27:lcd.c         **** 	delta_mtime = get_timer_value() - start_mtime;
  80              		.loc 1 27 2 is_stmt 1 discriminator 1
  28:lcd.c         **** 	}while(delta_mtime <(SystemCoreClock/4000.0 *count ));
GAS LISTING C:\Users\nesre\AppData\Local\Temp\ccPTohGt.s 			page 3


  81              		.loc 1 28 2 discriminator 1
  28:lcd.c         **** 	}while(delta_mtime <(SystemCoreClock/4000.0 *count ));
  82              		.loc 1 28 16 is_stmt 0 discriminator 1
  83 004a 97000000 		call	get_timer_value
  83      E7800000 
  84              	.LVL6:
  85 0052 AA87     		mv	a5,a0
  28:lcd.c         **** 	}while(delta_mtime <(SystemCoreClock/4000.0 *count ));
  86              		.loc 1 28 14 discriminator 1
  87 0054 058D     		sub	a0,a0,s1
  88              	.LVL7:
  89 0056 B3B7A700 		sgtu	a5,a0,a5
  90              	.LVL8:
  91 005a 818D     		sub	a1,a1,s0
  92              		.loc 1 29 21 discriminator 1
  93 005c 9D8D     		sub	a1,a1,a5
  94 005e 97000000 		call	__floatundidf
  94      E7800000 
  95              	.LVL9:
  96 0066 2A8A     		mv	s4,a0
  97              		.loc 1 29 38 discriminator 1
  98 0068 03A50B00 		lw	a0,%lo(SystemCoreClock)(s7)
  99              		.loc 1 29 21 discriminator 1
 100 006c AE8A     		mv	s5,a1
 101              		.loc 1 29 38 discriminator 1
 102 006e 97000000 		call	__floatunsidf
 102      E7800000 
 103              	.LVL10:
 104 0076 4A86     		mv	a2,s2
 105 0078 CE86     		mv	a3,s3
 106 007a 97000000 		call	__divdf3
 106      E7800000 
 107              	.LVL11:
 108 0082 2A8C     		mv	s8,a0
 109              		.loc 1 29 46 discriminator 1
 110 0084 5A85     		mv	a0,s6
 111              		.loc 1 29 38 discriminator 1
 112 0086 AE8C     		mv	s9,a1
 113              		.loc 1 29 46 discriminator 1
 114 0088 97000000 		call	__floatunsidf
 114      E7800000 
 115              	.LVL12:
 116 0090 2A86     		mv	a2,a0
 117 0092 AE86     		mv	a3,a1
 118 0094 6285     		mv	a0,s8
 119 0096 E685     		mv	a1,s9
 120 0098 97000000 		call	__muldf3
 120      E7800000 
 121              	.LVL13:
 122              		.loc 1 29 2 discriminator 1
 123 00a0 2A86     		mv	a2,a0
 124 00a2 AE86     		mv	a3,a1
 125 00a4 5285     		mv	a0,s4
 126 00a6 D685     		mv	a1,s5
 127 00a8 97000000 		call	__ltdf2
 127      E7800000 
 128              	.LVL14:
GAS LISTING C:\Users\nesre\AppData\Local\Temp\ccPTohGt.s 			page 4


 129 00b0 E34D05F8 		blt	a0,zero,.L4
  30:lcd.c         **** }
 130              		.loc 1 30 1
 131 00b4 B250     		lw	ra,44(sp)
 132              		.cfi_restore 1
 133 00b6 2254     		lw	s0,40(sp)
 134              		.cfi_restore 8
 135              	.LVL15:
 136 00b8 9254     		lw	s1,36(sp)
 137              		.cfi_restore 9
 138 00ba 0259     		lw	s2,32(sp)
 139              		.cfi_restore 18
 140 00bc F249     		lw	s3,28(sp)
 141              		.cfi_restore 19
 142 00be 624A     		lw	s4,24(sp)
 143              		.cfi_restore 20
 144 00c0 D24A     		lw	s5,20(sp)
 145              		.cfi_restore 21
 146 00c2 424B     		lw	s6,16(sp)
 147              		.cfi_restore 22
 148              	.LVL16:
 149 00c4 B24B     		lw	s7,12(sp)
 150              		.cfi_restore 23
 151 00c6 224C     		lw	s8,8(sp)
 152              		.cfi_restore 24
 153 00c8 924C     		lw	s9,4(sp)
 154              		.cfi_restore 25
 155 00ca 4561     		addi	sp,sp,48
 156              	.LCFI1:
 157              		.cfi_def_cfa_offset 0
 158 00cc 8280     		jr	ra
 159              		.cfi_endproc
 160              	.LFE2:
 162              		.section	.text.LCD_WR_Queue,"ax",@progbits
 163              		.align	1
 164              		.globl	LCD_WR_Queue
 166              	LCD_WR_Queue:
 167              	.LFB4:
  31:lcd.c         **** 
  32:lcd.c         **** 
  33:lcd.c         **** 
  34:lcd.c         **** int r=0, w=0, queue[256]={0};                       // 256 Byte wr queue
  35:lcd.c         **** 
  36:lcd.c         **** void LCD_Wait_On_Queue(){
  37:lcd.c         **** 	while(r != w) LCD_WR_Queue();					//Blocks while emptying the queue
  38:lcd.c         **** }
  39:lcd.c         **** 
  40:lcd.c         **** void LCD_WR_Queue(){
 168              		.loc 1 40 20 is_stmt 1
 169              		.cfi_startproc
  41:lcd.c         ****     if (r!=w) {                                     // Buffer empty?
 170              		.loc 1 41 5
  40:lcd.c         ****     if (r!=w) {                                     // Buffer empty?
 171              		.loc 1 40 20 is_stmt 0
 172 0000 4111     		addi	sp,sp,-16
 173              	.LCFI2:
 174              		.cfi_def_cfa_offset 16
GAS LISTING C:\Users\nesre\AppData\Local\Temp\ccPTohGt.s 			page 5


 175 0002 22C4     		sw	s0,8(sp)
 176              		.loc 1 41 8
 177 0004 B7070000 		lui	a5,%hi(.LANCHOR1)
 178              		.cfi_offset 8, -8
 179              		.loc 1 41 10
 180 0008 37040000 		lui	s0,%hi(.LANCHOR0)
 181              		.loc 1 41 8
 182 000c 03270400 		lw	a4,%lo(.LANCHOR0)(s0)
 183 0010 83A70700 		lw	a5,%lo(.LANCHOR1)(a5)
  40:lcd.c         ****     if (r!=w) {                                     // Buffer empty?
 184              		.loc 1 40 20
 185 0014 06C6     		sw	ra,12(sp)
 186 0016 26C2     		sw	s1,4(sp)
 187              		.cfi_offset 1, -4
 188              		.cfi_offset 9, -12
 189              		.loc 1 41 8
 190 0018 630AF708 		beq	a4,a5,.L8
  42:lcd.c         ****        if (spi_i2s_flag_get(SPI1,SPI_FLAG_TBE)) {   // ...no! Device redy?
 191              		.loc 1 42 8 is_stmt 1
 192              		.loc 1 42 12 is_stmt 0
 193 001c 37450040 		li	a0,1073758208
 194 0020 8945     		li	a1,2
 195 0022 13050580 		addi	a0,a0,-2048
 196 0026 97000000 		call	spi_i2s_flag_get
 196      E7800000 
 197              	.LVL17:
 198              		.loc 1 42 11
 199 002e 2DC5     		beq	a0,zero,.L7
 200              	.LBB168:
 201              	.LBB169:
  43:lcd.c         ****           OLED_CS_Clr();                            // ......Yes! CS (again)
 202              		.loc 1 43 11
 203 0030 8965     		li	a1,8192
 204 0032 37150140 		li	a0,1073811456
 205 0036 97000000 		call	gpio_bit_reset
 205      E7800000 
 206              	.LVL18:
 207 003e 13040400 		addi	s0,s0,%lo(.LANCHOR0)
 208              		.loc 1 43 11 is_stmt 1
  44:lcd.c         ****           (queue[r]>=1<<8) ? OLED_DC_Set() : OLED_DC_Clr(); //    DC
 209              		.loc 1 44 11
 210              		.loc 1 44 17 is_stmt 0
 211 0042 1440     		lw	a3,0(s0)
 212 0044 B7070000 		lui	a5,%hi(.LANCHOR2)
 213 0048 13870700 		addi	a4,a5,%lo(.LANCHOR2)
 214 004c 8A06     		slli	a3,a3,2
 215 004e 3697     		add	a4,a4,a3
 216              		.loc 1 44 44
 217 0050 1443     		lw	a3,0(a4)
 218 0052 1307F00F 		li	a4,255
 219 0056 93840700 		addi	s1,a5,%lo(.LANCHOR2)
 220              		.loc 1 44 30
 221 005a A165     		li	a1,32768
 222 005c 37150140 		li	a0,1073811456
 223              		.loc 1 44 44
 224 0060 6351D704 		ble	a3,a4,.L10
 225              		.loc 1 44 30
GAS LISTING C:\Users\nesre\AppData\Local\Temp\ccPTohGt.s 			page 6


 226 0064 97000000 		call	gpio_bit_set
 226      E7800000 
 227              	.LVL19:
 228              	.L11:
  45:lcd.c         ****           spi_i2s_data_transmit(SPI1, queue[r++]&0xFF); //        Write!
 229              		.loc 1 45 11 is_stmt 1
 230              		.loc 1 45 46 is_stmt 0
 231 006c 1C40     		lw	a5,0(s0)
 232              		.loc 1 45 11
 233 006e 37450040 		li	a0,1073758208
 234 0072 13050580 		addi	a0,a0,-2048
 235              		.loc 1 45 46
 236 0076 13871700 		addi	a4,a5,1
 237              		.loc 1 45 44
 238 007a 8A07     		slli	a5,a5,2
 239 007c A697     		add	a5,s1,a5
 240              		.loc 1 45 11
 241 007e 83C50700 		lbu	a1,0(a5)
 242              		.loc 1 45 46
 243 0082 18C0     		sw	a4,0(s0)
 244              		.loc 1 45 11
 245 0084 97000000 		call	spi_i2s_data_transmit
 245      E7800000 
 246              	.LVL20:
  46:lcd.c         ****           r%=256;                                   //            Advance.
 247              		.loc 1 46 11 is_stmt 1
 248              		.loc 1 46 12 is_stmt 0
 249 008c 1C40     		lw	a5,0(s0)
 250 008e 13070010 		li	a4,256
 251 0092 B3E7E702 		rem	a5,a5,a4
 252 0096 1CC0     		sw	a5,0(s0)
 253              	.L7:
 254              	.LBE169:
 255              	.LBE168:
  47:lcd.c         ****         }                                           //       (No! Return!)
  48:lcd.c         ****     } else {
  49:lcd.c         **** 		//if (spi_i2s_flag_get(SPI1,SPI_FLAG_TBE))    // ...yes! TBE high too?
  50:lcd.c         ****            OLED_CS_Set();                           // ......yes! CS high, done!
  51:lcd.c         ****     }
  52:lcd.c         **** }
 256              		.loc 1 52 1
 257 0098 B240     		lw	ra,12(sp)
 258              		.cfi_remember_state
 259              		.cfi_restore 1
 260 009a 2244     		lw	s0,8(sp)
 261              		.cfi_restore 8
 262 009c 9244     		lw	s1,4(sp)
 263              		.cfi_restore 9
 264 009e 4101     		addi	sp,sp,16
 265              	.LCFI3:
 266              		.cfi_def_cfa_offset 0
 267 00a0 8280     		jr	ra
 268              	.L10:
 269              	.LCFI4:
 270              		.cfi_restore_state
 271              	.LBB171:
 272              	.LBB170:
GAS LISTING C:\Users\nesre\AppData\Local\Temp\ccPTohGt.s 			page 7


  44:lcd.c         ****           spi_i2s_data_transmit(SPI1, queue[r++]&0xFF); //        Write!
 273              		.loc 1 44 46
 274 00a2 97000000 		call	gpio_bit_reset
 274      E7800000 
 275              	.LVL21:
 276 00aa C9B7     		j	.L11
 277              	.L8:
 278              	.LBE170:
 279              	.LBE171:
  50:lcd.c         ****     }
 280              		.loc 1 50 12 is_stmt 1
 281              		.loc 1 52 1 is_stmt 0
 282 00ac 2244     		lw	s0,8(sp)
 283              		.cfi_restore 8
 284 00ae B240     		lw	ra,12(sp)
 285              		.cfi_restore 1
 286 00b0 9244     		lw	s1,4(sp)
 287              		.cfi_restore 9
  50:lcd.c         ****     }
 288              		.loc 1 50 12
 289 00b2 8965     		li	a1,8192
 290              		.loc 1 52 1
  50:lcd.c         ****     }
 291              		.loc 1 50 12
 292 00b4 37150140 		li	a0,1073811456
 293              		.loc 1 52 1
 294 00b8 4101     		addi	sp,sp,16
 295              	.LCFI5:
 296              		.cfi_def_cfa_offset 0
  50:lcd.c         ****     }
 297              		.loc 1 50 12
 298 00ba 17030000 		tail	gpio_bit_set
 298      67000300 
 299              	.LVL22:
 300              		.cfi_endproc
 301              	.LFE4:
 303              		.section	.text.LCD_Wait_On_Queue,"ax",@progbits
 304              		.align	1
 305              		.globl	LCD_Wait_On_Queue
 307              	LCD_Wait_On_Queue:
 308              	.LFB3:
  36:lcd.c         **** 	while(r != w) LCD_WR_Queue();					//Blocks while emptying the queue
 309              		.loc 1 36 25 is_stmt 1
 310              		.cfi_startproc
  37:lcd.c         **** }
 311              		.loc 1 37 2
  36:lcd.c         **** 	while(r != w) LCD_WR_Queue();					//Blocks while emptying the queue
 312              		.loc 1 36 25 is_stmt 0
 313 0000 4111     		addi	sp,sp,-16
 314              	.LCFI6:
 315              		.cfi_def_cfa_offset 16
 316 0002 22C4     		sw	s0,8(sp)
 317 0004 26C2     		sw	s1,4(sp)
 318 0006 06C6     		sw	ra,12(sp)
 319              		.cfi_offset 8, -8
 320              		.cfi_offset 9, -12
 321              		.cfi_offset 1, -4
GAS LISTING C:\Users\nesre\AppData\Local\Temp\ccPTohGt.s 			page 8


  37:lcd.c         **** }
 322              		.loc 1 37 10
 323 0008 B7040000 		lui	s1,%hi(.LANCHOR0)
 324 000c 37040000 		lui	s0,%hi(.LANCHOR1)
 325              	.L17:
  37:lcd.c         **** }
 326              		.loc 1 37 7 discriminator 1
 327 0010 03A70400 		lw	a4,%lo(.LANCHOR0)(s1)
 328 0014 83270400 		lw	a5,%lo(.LANCHOR1)(s0)
 329 0018 6317F700 		bne	a4,a5,.L18
  38:lcd.c         **** 
 330              		.loc 1 38 1
 331 001c B240     		lw	ra,12(sp)
 332              		.cfi_remember_state
 333              		.cfi_restore 1
 334 001e 2244     		lw	s0,8(sp)
 335              		.cfi_restore 8
 336 0020 9244     		lw	s1,4(sp)
 337              		.cfi_restore 9
 338 0022 4101     		addi	sp,sp,16
 339              	.LCFI7:
 340              		.cfi_def_cfa_offset 0
 341 0024 8280     		jr	ra
 342              	.L18:
 343              	.LCFI8:
 344              		.cfi_restore_state
  37:lcd.c         **** }
 345              		.loc 1 37 16 is_stmt 1 discriminator 2
 346 0026 97000000 		call	LCD_WR_Queue
 346      E7800000 
 347              	.LVL23:
 348 002e CDB7     		j	.L17
 349              		.cfi_endproc
 350              	.LFE3:
 352              		.section	.text.LCD_Write_Bus,"ax",@progbits
 353              		.align	1
 354              		.globl	LCD_Write_Bus
 356              	LCD_Write_Bus:
 357              	.LFB5:
  53:lcd.c         **** 
  54:lcd.c         **** void LCD_Write_Bus(int dat) {
 358              		.loc 1 54 29
 359              		.cfi_startproc
 360              	.LVL24:
  55:lcd.c         ****    while (((w+1)%256)==r) LCD_WR_Queue(); //If buffer full then spin...
 361              		.loc 1 55 4
  54:lcd.c         ****    while (((w+1)%256)==r) LCD_WR_Queue(); //If buffer full then spin...
 362              		.loc 1 54 29 is_stmt 0
 363 0000 0111     		addi	sp,sp,-32
 364              	.LCFI9:
 365              		.cfi_def_cfa_offset 32
 366 0002 22CC     		sw	s0,24(sp)
 367 0004 26CA     		sw	s1,20(sp)
 368 0006 4AC8     		sw	s2,16(sp)
 369 0008 06CE     		sw	ra,28(sp)
 370              		.cfi_offset 8, -8
 371              		.cfi_offset 9, -12
GAS LISTING C:\Users\nesre\AppData\Local\Temp\ccPTohGt.s 			page 9


 372              		.cfi_offset 18, -16
 373              		.cfi_offset 1, -4
 374              		.loc 1 55 14
 375 000a 37090000 		lui	s2,%hi(.LANCHOR1)
 376              		.loc 1 55 17
 377 000e 93040010 		li	s1,256
 378              		.loc 1 55 22
 379 0012 37040000 		lui	s0,%hi(.LANCHOR0)
 380              	.LVL25:
 381              	.L21:
 382              		.loc 1 55 14 discriminator 1
 383 0016 13060900 		addi	a2,s2,%lo(.LANCHOR1)
 384 001a 1C42     		lw	a5,0(a2)
 385              		.loc 1 55 10 discriminator 1
 386 001c 83260400 		lw	a3,%lo(.LANCHOR0)(s0)
 387              		.loc 1 55 14 discriminator 1
 388 0020 13871700 		addi	a4,a5,1
 389              		.loc 1 55 17 discriminator 1
 390 0024 33679702 		rem	a4,a4,s1
 391              		.loc 1 55 10 discriminator 1
 392 0028 6301D702 		beq	a4,a3,.L22
  56:lcd.c         ****    queue[w++]=dat;                        //...If/when not then store data...
 393              		.loc 1 56 4 is_stmt 1
 394              		.loc 1 56 14 is_stmt 0
 395 002c 93962700 		slli	a3,a5,2
 396 0030 B7070000 		lui	a5,%hi(.LANCHOR2)
  57:lcd.c         ****    w%=256;                                //...and advance write index!
  58:lcd.c         **** }
 397              		.loc 1 58 1
 398 0034 F240     		lw	ra,28(sp)
 399              		.cfi_remember_state
 400              		.cfi_restore 1
 401 0036 6244     		lw	s0,24(sp)
 402              		.cfi_restore 8
  56:lcd.c         ****    queue[w++]=dat;                        //...If/when not then store data...
 403              		.loc 1 56 14
 404 0038 93870700 		addi	a5,a5,%lo(.LANCHOR2)
 405 003c B697     		add	a5,a5,a3
 406 003e 88C3     		sw	a0,0(a5)
  57:lcd.c         ****    w%=256;                                //...and advance write index!
 407              		.loc 1 57 4 is_stmt 1
  57:lcd.c         ****    w%=256;                                //...and advance write index!
 408              		.loc 1 57 5 is_stmt 0
 409 0040 18C2     		sw	a4,0(a2)
 410              		.loc 1 58 1
 411 0042 D244     		lw	s1,20(sp)
 412              		.cfi_restore 9
 413 0044 4249     		lw	s2,16(sp)
 414              		.cfi_restore 18
 415 0046 0561     		addi	sp,sp,32
 416              	.LCFI10:
 417              		.cfi_def_cfa_offset 0
 418 0048 8280     		jr	ra
 419              	.L22:
 420              	.LCFI11:
 421              		.cfi_restore_state
 422 004a 2AC6     		sw	a0,12(sp)
GAS LISTING C:\Users\nesre\AppData\Local\Temp\ccPTohGt.s 			page 10


  55:lcd.c         ****    queue[w++]=dat;                        //...If/when not then store data...
 423              		.loc 1 55 27 is_stmt 1 discriminator 2
 424 004c 97000000 		call	LCD_WR_Queue
 424      E7800000 
 425              	.LVL26:
 426 0054 3245     		lw	a0,12(sp)
 427 0056 C1B7     		j	.L21
 428              		.cfi_endproc
 429              	.LFE5:
 431              		.section	.text.LCD_Writ_Bus,"ax",@progbits
 432              		.align	1
 433              		.globl	LCD_Writ_Bus
 435              	LCD_Writ_Bus:
 436              	.LFB6:
  59:lcd.c         **** 
  60:lcd.c         **** /*
  61:lcd.c         ****   Function description: LCD serial data write function (write one byte)
  62:lcd.c         ****   Entry data: dat: byte to be written
  63:lcd.c         ****   Return value: None
  64:lcd.c         ****   Note: DC must already be set (for data) or reset (for command)
  65:lcd.c         **** */
  66:lcd.c         **** void LCD_Writ_Bus(u8 dat) 
  67:lcd.c         **** {
 437              		.loc 1 67 1
 438              		.cfi_startproc
 439              	.LVL27:
  68:lcd.c         **** 	OLED_CS_Clr();
 440              		.loc 1 68 2
  67:lcd.c         **** 	OLED_CS_Clr();
 441              		.loc 1 67 1 is_stmt 0
 442 0000 4111     		addi	sp,sp,-16
 443              	.LCFI12:
 444              		.cfi_def_cfa_offset 16
 445 0002 22C4     		sw	s0,8(sp)
 446 0004 26C2     		sw	s1,4(sp)
 447              		.loc 1 68 2
 448 0006 8965     		li	a1,8192
 449              		.cfi_offset 8, -8
 450              		.cfi_offset 9, -12
  67:lcd.c         **** 	OLED_CS_Clr();
 451              		.loc 1 67 1
 452 0008 AA84     		mv	s1,a0
  69:lcd.c         **** 
  70:lcd.c         **** 	while(RESET == spi_i2s_flag_get(SPI1, SPI_FLAG_TBE));
 453              		.loc 1 70 17
 454 000a 37440040 		li	s0,1073758208
  68:lcd.c         **** 
 455              		.loc 1 68 2
 456 000e 37150140 		li	a0,1073811456
 457              	.LVL28:
  67:lcd.c         **** 	OLED_CS_Clr();
 458              		.loc 1 67 1
 459 0012 4AC0     		sw	s2,0(sp)
 460 0014 06C6     		sw	ra,12(sp)
 461              		.cfi_offset 18, -16
 462              		.cfi_offset 1, -4
 463              		.loc 1 70 17
GAS LISTING C:\Users\nesre\AppData\Local\Temp\ccPTohGt.s 			page 11


 464 0016 13090480 		addi	s2,s0,-2048
  68:lcd.c         **** 
 465              		.loc 1 68 2
 466 001a 97000000 		call	gpio_bit_reset
 466      E7800000 
 467              	.LVL29:
 468              		.loc 1 70 2 is_stmt 1
 469              	.L25:
 470              		.loc 1 70 54 discriminator 1
 471              		.loc 1 70 17 is_stmt 0 discriminator 1
 472 0022 8945     		li	a1,2
 473 0024 4A85     		mv	a0,s2
 474 0026 97000000 		call	spi_i2s_flag_get
 474      E7800000 
 475              	.LVL30:
 476              		.loc 1 70 7 discriminator 1
 477 002e 75D9     		beq	a0,zero,.L25
  71:lcd.c         ****         spi_i2s_data_transmit(SPI1, dat);
 478              		.loc 1 71 9 is_stmt 1
 479 0030 A685     		mv	a1,s1
 480 0032 13050480 		addi	a0,s0,-2048
  72:lcd.c         **** 
  73:lcd.c         **** 
  74:lcd.c         **** 	while(RESET == spi_i2s_flag_get(SPI1, SPI_FLAG_RBNE));
 481              		.loc 1 74 17 is_stmt 0
 482 0036 37440040 		li	s0,1073758208
  71:lcd.c         ****         spi_i2s_data_transmit(SPI1, dat);
 483              		.loc 1 71 9
 484 003a 97000000 		call	spi_i2s_data_transmit
 484      E7800000 
 485              	.LVL31:
 486              		.loc 1 74 2 is_stmt 1
 487              		.loc 1 74 17 is_stmt 0
 488 0042 93040480 		addi	s1,s0,-2048
 489              	.L26:
 490              		.loc 1 74 55 is_stmt 1 discriminator 1
 491              		.loc 1 74 17 is_stmt 0 discriminator 1
 492 0046 8545     		li	a1,1
 493 0048 2685     		mv	a0,s1
 494 004a 97000000 		call	spi_i2s_flag_get
 494      E7800000 
 495              	.LVL32:
 496              		.loc 1 74 7 discriminator 1
 497 0052 75D9     		beq	a0,zero,.L26
  75:lcd.c         ****         spi_i2s_data_receive(SPI1);
 498              		.loc 1 75 9 is_stmt 1
 499 0054 13050480 		addi	a0,s0,-2048
 500 0058 97000000 		call	spi_i2s_data_receive
 500      E7800000 
 501              	.LVL33:
  76:lcd.c         **** 
  77:lcd.c         **** 	OLED_CS_Set();  
 502              		.loc 1 77 2
  78:lcd.c         **** }
 503              		.loc 1 78 1 is_stmt 0
 504 0060 2244     		lw	s0,8(sp)
 505              		.cfi_restore 8
GAS LISTING C:\Users\nesre\AppData\Local\Temp\ccPTohGt.s 			page 12


 506 0062 B240     		lw	ra,12(sp)
 507              		.cfi_restore 1
 508 0064 9244     		lw	s1,4(sp)
 509              		.cfi_restore 9
 510 0066 0249     		lw	s2,0(sp)
 511              		.cfi_restore 18
  77:lcd.c         **** }
 512              		.loc 1 77 2
 513 0068 8965     		li	a1,8192
 514              		.loc 1 78 1
  77:lcd.c         **** }
 515              		.loc 1 77 2
 516 006a 37150140 		li	a0,1073811456
 517              		.loc 1 78 1
 518 006e 4101     		addi	sp,sp,16
 519              	.LCFI13:
 520              		.cfi_def_cfa_offset 0
  77:lcd.c         **** }
 521              		.loc 1 77 2
 522 0070 17030000 		tail	gpio_bit_set
 522      67000300 
 523              	.LVL34:
 524              		.cfi_endproc
 525              	.LFE6:
 527              		.section	.text.LCD_WR_DATA8,"ax",@progbits
 528              		.align	1
 529              		.globl	LCD_WR_DATA8
 531              	LCD_WR_DATA8:
 532              	.LFB7:
  79:lcd.c         **** 
  80:lcd.c         **** 
  81:lcd.c         **** /*
  82:lcd.c         ****   Function description: LCD write 8-bit data
  83:lcd.c         ****   Entry data: dat: data to be written
  84:lcd.c         ****   Return value: None
  85:lcd.c         **** */
  86:lcd.c         **** void LCD_WR_DATA8(u8 dat)
  87:lcd.c         **** {
 533              		.loc 1 87 1 is_stmt 1
 534              		.cfi_startproc
 535              	.LVL35:
  88:lcd.c         **** 	//OLED_DC_Set();  // Write data
  89:lcd.c         **** 	//LCD_Writ_Bus(dat);
  90:lcd.c         ****     LCD_Write_Bus(((int)dat)+(1<<8));
 536              		.loc 1 90 5
 537 0000 13050510 		addi	a0,a0,256
 538              	.LVL36:
 539 0004 17030000 		tail	LCD_Write_Bus
 539      67000300 
 540              	.LVL37:
 541              		.cfi_endproc
 542              	.LFE7:
 544              		.section	.text.LCD_WR_DATA,"ax",@progbits
 545              		.align	1
 546              		.globl	LCD_WR_DATA
 548              	LCD_WR_DATA:
 549              	.LFB8:
GAS LISTING C:\Users\nesre\AppData\Local\Temp\ccPTohGt.s 			page 13


  91:lcd.c         **** }
  92:lcd.c         **** 
  93:lcd.c         **** 
  94:lcd.c         **** /*
  95:lcd.c         ****   Function description: LCD write 16-bit data
  96:lcd.c         ****   Entry data: dat: 16-bit data to be written
  97:lcd.c         ****   Return value: None
  98:lcd.c         **** */
  99:lcd.c         **** void LCD_WR_DATA(u16 dat)
 100:lcd.c         **** {
 550              		.loc 1 100 1
 551              		.cfi_startproc
 552              	.LVL38:
 101:lcd.c         **** 	//OLED_DC_Set();  // Write data
 102:lcd.c         **** 	//LCD_Writ_Bus(dat>>8);
 103:lcd.c         **** 	//LCD_Writ_Bus(dat);
 104:lcd.c         ****     LCD_Write_Bus(((int)dat>>8)+(1<<8));
 553              		.loc 1 104 5
 100:lcd.c         **** 	//OLED_DC_Set();  // Write data
 554              		.loc 1 100 1 is_stmt 0
 555 0000 4111     		addi	sp,sp,-16
 556              	.LCFI14:
 557              		.cfi_def_cfa_offset 16
 558 0002 22C4     		sw	s0,8(sp)
 559              		.cfi_offset 8, -8
 560 0004 2A84     		mv	s0,a0
 561              		.loc 1 104 28
 562 0006 2185     		srai	a0,a0,8
 563              	.LVL39:
 564              		.loc 1 104 5
 565 0008 13050510 		addi	a0,a0,256
 100:lcd.c         **** 	//OLED_DC_Set();  // Write data
 566              		.loc 1 100 1
 567 000c 06C6     		sw	ra,12(sp)
 568              		.cfi_offset 1, -4
 569              		.loc 1 104 5
 570 000e 97000000 		call	LCD_Write_Bus
 570      E7800000 
 571              	.LVL40:
 105:lcd.c         ****     LCD_Write_Bus(((int)dat&0xFF)+(1<<8));
 572              		.loc 1 105 5 is_stmt 1
 573              		.loc 1 105 28 is_stmt 0
 574 0016 1375F40F 		andi	a0,s0,255
 106:lcd.c         **** }
 575              		.loc 1 106 1
 576 001a 2244     		lw	s0,8(sp)
 577              		.cfi_restore 8
 578              	.LVL41:
 579 001c B240     		lw	ra,12(sp)
 580              		.cfi_restore 1
 105:lcd.c         ****     LCD_Write_Bus(((int)dat&0xFF)+(1<<8));
 581              		.loc 1 105 5
 582 001e 13050510 		addi	a0,a0,256
 583              		.loc 1 106 1
 584 0022 4101     		addi	sp,sp,16
 585              	.LCFI15:
 586              		.cfi_def_cfa_offset 0
GAS LISTING C:\Users\nesre\AppData\Local\Temp\ccPTohGt.s 			page 14


 105:lcd.c         ****     LCD_Write_Bus(((int)dat&0xFF)+(1<<8));
 587              		.loc 1 105 5
 588 0024 17030000 		tail	LCD_Write_Bus
 588      67000300 
 589              	.LVL42:
 590              		.cfi_endproc
 591              	.LFE8:
 593              		.section	.text.LCD_WR_REG,"ax",@progbits
 594              		.align	1
 595              		.globl	LCD_WR_REG
 597              	LCD_WR_REG:
 598              	.LFB9:
 107:lcd.c         **** 
 108:lcd.c         **** 
 109:lcd.c         **** /*
 110:lcd.c         ****   Function description: LCD write 8-bit command
 111:lcd.c         ****   Entry data: dat: command to be written
 112:lcd.c         ****   Return value: None
 113:lcd.c         **** */
 114:lcd.c         **** void LCD_WR_REG(u8 dat)
 115:lcd.c         **** {
 599              		.loc 1 115 1 is_stmt 1
 600              		.cfi_startproc
 601              	.LVL43:
 116:lcd.c         **** 	//OLED_DC_Clr();  // Write command
 117:lcd.c         **** 	//LCD_Writ_Bus(dat);
 118:lcd.c         ****     LCD_Write_Bus((int)dat);
 602              		.loc 1 118 5
 603 0000 17030000 		tail	LCD_Write_Bus
 603      67000300 
 604              	.LVL44:
 605              		.cfi_endproc
 606              	.LFE9:
 608              		.section	.text.LCD_Address_Set,"ax",@progbits
 609              		.align	1
 610              		.globl	LCD_Address_Set
 612              	LCD_Address_Set:
 613              	.LFB10:
 119:lcd.c         **** }
 120:lcd.c         **** 
 121:lcd.c         **** 
 122:lcd.c         **** 
 123:lcd.c         **** /*
 124:lcd.c         ****   Function description: Set start and end addresses
 125:lcd.c         ****   Entry data: x1, x2 set the start and end column address
 126:lcd.c         ****               y1, y2 set the start and end row address
 127:lcd.c         ****   Return value: None
 128:lcd.c         **** */
 129:lcd.c         **** void LCD_Address_Set(u16 x1,u16 y1,u16 x2,u16 y2)
 130:lcd.c         **** {
 614              		.loc 1 130 1
 615              		.cfi_startproc
 616              	.LVL45:
 131:lcd.c         **** 	LCD_WR_REG(0x2a);  // Column address setting
 617              		.loc 1 131 2
 618              	.LBB172:
 619              	.LBB173:
GAS LISTING C:\Users\nesre\AppData\Local\Temp\ccPTohGt.s 			page 15


 118:lcd.c         **** }
 620              		.loc 1 118 5
 621              	.LBE173:
 622              	.LBE172:
 130:lcd.c         **** 	LCD_WR_REG(0x2a);  // Column address setting
 623              		.loc 1 130 1 is_stmt 0
 624 0000 0111     		addi	sp,sp,-32
 625              	.LCFI16:
 626              		.cfi_def_cfa_offset 32
 627 0002 22CC     		sw	s0,24(sp)
 628 0004 26CA     		sw	s1,20(sp)
 629              		.cfi_offset 8, -8
 630              		.cfi_offset 9, -12
 132:lcd.c         **** 	LCD_WR_DATA(x1+lcd_conf.offset_x);
 631              		.loc 1 132 25
 632 0006 37040000 		lui	s0,%hi(.LANCHOR3)
 130:lcd.c         **** 	LCD_WR_REG(0x2a);  // Column address setting
 633              		.loc 1 130 1
 634 000a AA84     		mv	s1,a0
 635              	.LBB176:
 636              	.LBB174:
 118:lcd.c         **** }
 637              		.loc 1 118 5
 638 000c 1305A002 		li	a0,42
 639              	.LVL46:
 640              	.LBE174:
 641              	.LBE176:
 130:lcd.c         **** 	LCD_WR_REG(0x2a);  // Column address setting
 642              		.loc 1 130 1
 643 0010 06CE     		sw	ra,28(sp)
 644              		.cfi_offset 1, -4
 130:lcd.c         **** 	LCD_WR_REG(0x2a);  // Column address setting
 645              		.loc 1 130 1
 646 0012 36C2     		sw	a3,4(sp)
 647 0014 2EC6     		sw	a1,12(sp)
 648              		.loc 1 132 25
 649 0016 13040400 		addi	s0,s0,%lo(.LANCHOR3)
 130:lcd.c         **** 	LCD_WR_REG(0x2a);  // Column address setting
 650              		.loc 1 130 1
 651 001a 32C4     		sw	a2,8(sp)
 652              	.LBB177:
 653              	.LBB175:
 118:lcd.c         **** }
 654              		.loc 1 118 5
 655 001c 97000000 		call	LCD_Write_Bus
 655      E7800000 
 656              	.LVL47:
 657              	.LBE175:
 658              	.LBE177:
 659              		.loc 1 132 2 is_stmt 1
 660              		.loc 1 132 25 is_stmt 0
 661 0024 03452400 		lbu	a0,2(s0)
 662              		.loc 1 132 2
 663 0028 2695     		add	a0,a0,s1
 664 002a 97000000 		call	LCD_WR_DATA
 664      E7800000 
 665              	.LVL48:
GAS LISTING C:\Users\nesre\AppData\Local\Temp\ccPTohGt.s 			page 16


 133:lcd.c         **** 	LCD_WR_DATA(x2+lcd_conf.offset_x);
 666              		.loc 1 133 2 is_stmt 1
 667 0032 2246     		lw	a2,8(sp)
 668              		.loc 1 133 25 is_stmt 0
 669 0034 03452400 		lbu	a0,2(s0)
 670              		.loc 1 133 2
 671 0038 3295     		add	a0,a0,a2
 672 003a 97000000 		call	LCD_WR_DATA
 672      E7800000 
 673              	.LVL49:
 134:lcd.c         **** 	LCD_WR_REG(0x2b);  // row address setting
 674              		.loc 1 134 2 is_stmt 1
 675              	.LBB178:
 676              	.LBB179:
 118:lcd.c         **** }
 677              		.loc 1 118 5
 678 0042 1305B002 		li	a0,43
 679 0046 97000000 		call	LCD_Write_Bus
 679      E7800000 
 680              	.LVL50:
 681              	.LBE179:
 682              	.LBE178:
 135:lcd.c         **** 	LCD_WR_DATA(y1+lcd_conf.offset_y);
 683              		.loc 1 135 2
 684 004e B245     		lw	a1,12(sp)
 685              		.loc 1 135 25 is_stmt 0
 686 0050 03453400 		lbu	a0,3(s0)
 687              		.loc 1 135 2
 688 0054 2E95     		add	a0,a0,a1
 689 0056 97000000 		call	LCD_WR_DATA
 689      E7800000 
 690              	.LVL51:
 136:lcd.c         **** 	LCD_WR_DATA(y2+lcd_conf.offset_y);
 691              		.loc 1 136 2 is_stmt 1
 692              		.loc 1 136 25 is_stmt 0
 693 005e 03453400 		lbu	a0,3(s0)
 694              		.loc 1 136 2
 695 0062 9246     		lw	a3,4(sp)
 696 0064 3695     		add	a0,a0,a3
 697 0066 97000000 		call	LCD_WR_DATA
 697      E7800000 
 698              	.LVL52:
 137:lcd.c         **** 	LCD_WR_REG(0x2c);  // Memory write
 699              		.loc 1 137 2 is_stmt 1
 700              	.LBB180:
 701              	.LBB181:
 118:lcd.c         **** }
 702              		.loc 1 118 5
 703              	.LBE181:
 704              	.LBE180:
 138:lcd.c         **** }
 705              		.loc 1 138 1 is_stmt 0
 706 006e 6244     		lw	s0,24(sp)
 707              		.cfi_restore 8
 708 0070 F240     		lw	ra,28(sp)
 709              		.cfi_restore 1
 710 0072 D244     		lw	s1,20(sp)
GAS LISTING C:\Users\nesre\AppData\Local\Temp\ccPTohGt.s 			page 17


 711              		.cfi_restore 9
 712              	.LVL53:
 713              	.LBB184:
 714              	.LBB182:
 118:lcd.c         **** }
 715              		.loc 1 118 5
 716 0074 1305C002 		li	a0,44
 717              	.LBE182:
 718              	.LBE184:
 719              		.loc 1 138 1
 720 0078 0561     		addi	sp,sp,32
 721              	.LCFI17:
 722              		.cfi_def_cfa_offset 0
 723              	.LVL54:
 724              	.LBB185:
 725              	.LBB183:
 118:lcd.c         **** }
 726              		.loc 1 118 5
 727 007a 17030000 		tail	LCD_Write_Bus
 727      67000300 
 728              	.LVL55:
 729              	.LBE183:
 730              	.LBE185:
 731              		.cfi_endproc
 732              	.LFE10:
 734              		.section	.text.spi_config,"ax",@progbits
 735              		.align	1
 736              		.globl	spi_config
 738              	spi_config:
 739              	.LFB11:
 139:lcd.c         **** 
 140:lcd.c         **** /*!
 141:lcd.c         ****     \brief      configure the SPI peripheral
 142:lcd.c         ****     \param[in]  none
 143:lcd.c         ****     \param[out] none
 144:lcd.c         ****     \retval     none
 145:lcd.c         **** */
 146:lcd.c         **** void spi_config(void)
 147:lcd.c         **** {
 740              		.loc 1 147 1 is_stmt 1
 741              		.cfi_startproc
 148:lcd.c         ****     spi_parameter_struct spi_init_struct;
 742              		.loc 1 148 5
 149:lcd.c         ****     /* deinitilize SPI and the parameters */
 150:lcd.c         ****     OLED_CS_Set();
 743              		.loc 1 150 5
 147:lcd.c         ****     spi_parameter_struct spi_init_struct;
 744              		.loc 1 147 1 is_stmt 0
 745 0000 7971     		addi	sp,sp,-48
 746              	.LCFI18:
 747              		.cfi_def_cfa_offset 48
 748              		.loc 1 150 5
 749 0002 8965     		li	a1,8192
 750 0004 37150140 		li	a0,1073811456
 147:lcd.c         ****     spi_parameter_struct spi_init_struct;
 751              		.loc 1 147 1
 752 0008 06D6     		sw	ra,44(sp)
GAS LISTING C:\Users\nesre\AppData\Local\Temp\ccPTohGt.s 			page 18


 753 000a 22D4     		sw	s0,40(sp)
 754              		.cfi_offset 1, -4
 755              		.cfi_offset 8, -8
 756              		.loc 1 150 5
 757 000c 97000000 		call	gpio_bit_set
 757      E7800000 
 758              	.LVL56:
 151:lcd.c         ****     spi_struct_para_init(&spi_init_struct);
 759              		.loc 1 151 5 is_stmt 1
 760 0014 4800     		addi	a0,sp,4
 761 0016 97000000 		call	spi_struct_para_init
 761      E7800000 
 762              	.LVL57:
 152:lcd.c         **** 
 153:lcd.c         ****     /* SPI1 parameter config */
 154:lcd.c         ****     spi_init_struct.trans_mode           = SPI_TRANSMODE_FULLDUPLEX;
 763              		.loc 1 154 5
 155:lcd.c         ****     spi_init_struct.device_mode          = SPI_MASTER;
 764              		.loc 1 155 42 is_stmt 0
 765 001e 93074010 		li	a5,260
 766 0022 3EC2     		sw	a5,4(sp)
 156:lcd.c         ****     spi_init_struct.frame_size           = SPI_FRAMESIZE_8BIT;
 157:lcd.c         ****     spi_init_struct.clock_polarity_phase = SPI_CK_PL_HIGH_PH_2EDGE;
 767              		.loc 1 157 42
 768 0024 8D47     		li	a5,3
 158:lcd.c         ****     spi_init_struct.nss                  = SPI_NSS_SOFT;
 159:lcd.c         ****     spi_init_struct.prescale             = SPI_PSC_4;
 160:lcd.c         ****     spi_init_struct.endian               = SPI_ENDIAN_MSB;
 161:lcd.c         ****     spi_init(SPI1, &spi_init_struct);
 769              		.loc 1 161 5
 770 0026 37440040 		li	s0,1073758208
 157:lcd.c         ****     spi_init_struct.nss                  = SPI_NSS_SOFT;
 771              		.loc 1 157 42
 772 002a 3ECC     		sw	a5,24(sp)
 158:lcd.c         ****     spi_init_struct.nss                  = SPI_NSS_SOFT;
 773              		.loc 1 158 42
 774 002c 93070020 		li	a5,512
 775 0030 3EC8     		sw	a5,16(sp)
 776              		.loc 1 161 5
 777 0032 4C00     		addi	a1,sp,4
 159:lcd.c         ****     spi_init_struct.endian               = SPI_ENDIAN_MSB;
 778              		.loc 1 159 42
 779 0034 A147     		li	a5,8
 780              		.loc 1 161 5
 781 0036 13050480 		addi	a0,s0,-2048
 159:lcd.c         ****     spi_init_struct.endian               = SPI_ENDIAN_MSB;
 782              		.loc 1 159 42
 783 003a 3ECE     		sw	a5,28(sp)
 154:lcd.c         ****     spi_init_struct.device_mode          = SPI_MASTER;
 784              		.loc 1 154 42
 785 003c 02C4     		sw	zero,8(sp)
 155:lcd.c         ****     spi_init_struct.frame_size           = SPI_FRAMESIZE_8BIT;
 786              		.loc 1 155 5 is_stmt 1
 156:lcd.c         ****     spi_init_struct.clock_polarity_phase = SPI_CK_PL_HIGH_PH_2EDGE;
 787              		.loc 1 156 5
 156:lcd.c         ****     spi_init_struct.clock_polarity_phase = SPI_CK_PL_HIGH_PH_2EDGE;
 788              		.loc 1 156 42 is_stmt 0
GAS LISTING C:\Users\nesre\AppData\Local\Temp\ccPTohGt.s 			page 19


 789 003e 02C6     		sw	zero,12(sp)
 157:lcd.c         ****     spi_init_struct.nss                  = SPI_NSS_SOFT;
 790              		.loc 1 157 5 is_stmt 1
 158:lcd.c         ****     spi_init_struct.prescale             = SPI_PSC_4;
 791              		.loc 1 158 5
 159:lcd.c         ****     spi_init_struct.endian               = SPI_ENDIAN_MSB;
 792              		.loc 1 159 5
 160:lcd.c         ****     spi_init(SPI1, &spi_init_struct);
 793              		.loc 1 160 5
 160:lcd.c         ****     spi_init(SPI1, &spi_init_struct);
 794              		.loc 1 160 42 is_stmt 0
 795 0040 02CA     		sw	zero,20(sp)
 796              		.loc 1 161 5 is_stmt 1
 797 0042 97000000 		call	spi_init
 797      E7800000 
 798              	.LVL58:
 162:lcd.c         **** 
 163:lcd.c         **** 	spi_crc_polynomial_set(SPI1,7);
 799              		.loc 1 163 2
 800 004a 13050480 		addi	a0,s0,-2048
 801 004e 9D45     		li	a1,7
 802 0050 97000000 		call	spi_crc_polynomial_set
 802      E7800000 
 803              	.LVL59:
 164:lcd.c         **** 	spi_enable(SPI1);
 804              		.loc 1 164 2
 805 0058 13050480 		addi	a0,s0,-2048
 806 005c 97000000 		call	spi_enable
 806      E7800000 
 807              	.LVL60:
 165:lcd.c         **** }
 808              		.loc 1 165 1 is_stmt 0
 809 0064 B250     		lw	ra,44(sp)
 810              		.cfi_restore 1
 811 0066 2254     		lw	s0,40(sp)
 812              		.cfi_restore 8
 813 0068 4561     		addi	sp,sp,48
 814              	.LCFI19:
 815              		.cfi_def_cfa_offset 0
 816 006a 8280     		jr	ra
 817              		.cfi_endproc
 818              	.LFE11:
 820              		.section	.text.Lcd_SetType,"ax",@progbits
 821              		.align	1
 822              		.globl	Lcd_SetType
 824              	Lcd_SetType:
 825              	.LFB12:
 166:lcd.c         **** 
 167:lcd.c         **** void Lcd_SetType(int type){
 826              		.loc 1 167 27 is_stmt 1
 827              		.cfi_startproc
 828              	.LVL61:
 168:lcd.c         **** 	if(type == LCD_NORMAL){
 829              		.loc 1 168 2
 830              		.loc 1 168 4 is_stmt 0
 831 0000 09E9     		bne	a0,zero,.L41
 169:lcd.c         **** 		lcd_conf.configured = 1;
GAS LISTING C:\Users\nesre\AppData\Local\Temp\ccPTohGt.s 			page 20


 832              		.loc 1 169 3 is_stmt 1
 170:lcd.c         **** 		lcd_conf.offset_x = 1;
 833              		.loc 1 170 3
 171:lcd.c         **** 		lcd_conf.offset_y = 26;
 834              		.loc 1 171 3
 172:lcd.c         **** 		lcd_conf.inverted = 0;
 835              		.loc 1 172 3
 169:lcd.c         **** 		lcd_conf.offset_x = 1;
 836              		.loc 1 169 23 is_stmt 0
 837 0002 B707011A 		li	a5,436273152
 838 0006 37070000 		lui	a4,%hi(.LANCHOR3)
 839 000a 8507     		addi	a5,a5,1
 840 000c 2320F700 		sw	a5,%lo(.LANCHOR3)(a4)
 173:lcd.c         **** 	}
 174:lcd.c         **** 	if(type == LCD_INVERTED){
 841              		.loc 1 174 2 is_stmt 1
 842 0010 8280     		ret
 843              	.L41:
 844              		.loc 1 174 2
 845              		.loc 1 174 4 is_stmt 0
 846 0012 8547     		li	a5,1
 847 0014 6318F500 		bne	a0,a5,.L40
 848              	.LVL62:
 849              	.LBB188:
 850              	.LBB189:
 175:lcd.c         **** 		lcd_conf.configured = 1;
 851              		.loc 1 175 3 is_stmt 1
 176:lcd.c         **** 		lcd_conf.offset_x = 0;
 852              		.loc 1 176 3
 177:lcd.c         **** 		lcd_conf.offset_y = 0;
 853              		.loc 1 177 3
 178:lcd.c         **** 		lcd_conf.inverted = 1;
 854              		.loc 1 178 3
 175:lcd.c         **** 		lcd_conf.offset_x = 0;
 855              		.loc 1 175 23 is_stmt 0
 856 0018 B7070000 		lui	a5,%hi(.LANCHOR3)
 857 001c 13071010 		li	a4,257
 858 0020 23A0E700 		sw	a4,%lo(.LANCHOR3)(a5)
 859              	.LVL63:
 860              	.L40:
 861              	.LBE189:
 862              	.LBE188:
 179:lcd.c         **** 	}
 180:lcd.c         **** }
 863              		.loc 1 180 1
 864 0024 8280     		ret
 865              		.cfi_endproc
 866              	.LFE12:
 868              		.section	.text.Lcd_Init,"ax",@progbits
 869              		.align	1
 870              		.globl	Lcd_Init
 872              	Lcd_Init:
 873              	.LFB13:
 181:lcd.c         **** 
 182:lcd.c         **** 
 183:lcd.c         **** /*
 184:lcd.c         ****   Function description: LCD initialization function
GAS LISTING C:\Users\nesre\AppData\Local\Temp\ccPTohGt.s 			page 21


 185:lcd.c         ****   Entry data: None
 186:lcd.c         ****   Return value: None
 187:lcd.c         **** */
 188:lcd.c         **** void Lcd_Init(void)
 189:lcd.c         **** {
 874              		.loc 1 189 1 is_stmt 1
 875              		.cfi_startproc
 190:lcd.c         **** 	if(!lcd_conf.configured) Lcd_SetType(LCD_NORMAL);
 876              		.loc 1 190 2
 877              		.loc 1 190 14 is_stmt 0
 878 0000 B7070000 		lui	a5,%hi(.LANCHOR3)
 879              		.loc 1 190 4
 880 0004 03C70700 		lbu	a4,%lo(.LANCHOR3)(a5)
 189:lcd.c         **** 	if(!lcd_conf.configured) Lcd_SetType(LCD_NORMAL);
 881              		.loc 1 189 1
 882 0008 4111     		addi	sp,sp,-16
 883              	.LCFI20:
 884              		.cfi_def_cfa_offset 16
 885 000a 22C4     		sw	s0,8(sp)
 886 000c 06C6     		sw	ra,12(sp)
 887              		.cfi_offset 8, -8
 888              		.cfi_offset 1, -4
 889 000e 13840700 		addi	s0,a5,%lo(.LANCHOR3)
 890              		.loc 1 190 4
 891 0012 11E7     		bne	a4,zero,.L44
 892              		.loc 1 190 27 is_stmt 1 discriminator 1
 893 0014 0145     		li	a0,0
 894 0016 97000000 		call	Lcd_SetType
 894      E7800000 
 895              	.LVL64:
 896              	.L44:
 191:lcd.c         **** 	rcu_periph_clock_enable(RCU_GPIOB);
 897              		.loc 1 191 2
 898 001e 13053060 		li	a0,1539
 899 0022 97000000 		call	rcu_periph_clock_enable
 899      E7800000 
 900              	.LVL65:
 192:lcd.c         **** 	rcu_periph_clock_enable(RCU_GPIOC);
 901              		.loc 1 192 2
 902 002a 13054060 		li	a0,1540
 903 002e 97000000 		call	rcu_periph_clock_enable
 903      E7800000 
 904              	.LVL66:
 193:lcd.c         **** 
 194:lcd.c         ****  	rcu_periph_clock_enable(RCU_AF);
 905              		.loc 1 194 3
 906 0036 13050060 		li	a0,1536
 907 003a 97000000 		call	rcu_periph_clock_enable
 907      E7800000 
 908              	.LVL67:
 195:lcd.c         **** 	rcu_periph_clock_enable(RCU_SPI1);
 909              		.loc 1 195 2
 910 0042 1305E070 		li	a0,1806
 911 0046 97000000 		call	rcu_periph_clock_enable
 911      E7800000 
 912              	.LVL68:
 196:lcd.c         **** 	
GAS LISTING C:\Users\nesre\AppData\Local\Temp\ccPTohGt.s 			page 22


 197:lcd.c         ****     gpio_init(GPIOB, GPIO_MODE_AF_PP, GPIO_OSPEED_50MHZ, GPIO_PIN_13 |GPIO_PIN_14| GPIO_PIN_15);
 913              		.loc 1 197 5
 914 004e 37150140 		li	a0,1073811456
 915 0052 B966     		li	a3,57344
 916 0054 0D46     		li	a2,3
 917 0056 E145     		li	a1,24
 918 0058 130505C0 		addi	a0,a0,-1024
 919 005c 97000000 		call	gpio_init
 919      E7800000 
 920              	.LVL69:
 198:lcd.c         **** 	gpio_init(GPIOC, GPIO_MODE_OUT_PP, GPIO_OSPEED_50MHZ, GPIO_PIN_13 | GPIO_PIN_15); //CS
 921              		.loc 1 198 2
 922 0064 A966     		li	a3,40960
 923 0066 0D46     		li	a2,3
 924 0068 C145     		li	a1,16
 925 006a 37150140 		li	a0,1073811456
 926 006e 97000000 		call	gpio_init
 926      E7800000 
 927              	.LVL70:
 199:lcd.c         **** 
 200:lcd.c         **** 	spi_config();
 928              		.loc 1 200 2
 929 0076 97000000 		call	spi_config
 929      E7800000 
 930              	.LVL71:
 201:lcd.c         **** 
 202:lcd.c         **** 	gpio_bit_reset(GPIOC, GPIO_PIN_13 | GPIO_PIN_15);
 931              		.loc 1 202 2
 932 007e A965     		li	a1,40960
 933 0080 37150140 		li	a0,1073811456
 934 0084 97000000 		call	gpio_bit_reset
 934      E7800000 
 935              	.LVL72:
 203:lcd.c         **** 	LCD_Wait_On_Queue();
 936              		.loc 1 203 2
 937 008c 97000000 		call	LCD_Wait_On_Queue
 937      E7800000 
 938              	.LVL73:
 204:lcd.c         **** 	lcd_delay_1ms(100);
 939              		.loc 1 204 2
 940 0094 13054006 		li	a0,100
 941 0098 97000000 		call	lcd_delay_1ms
 941      E7800000 
 942              	.LVL74:
 205:lcd.c         **** 	
 206:lcd.c         **** 
 207:lcd.c         **** 	LCD_WR_REG(0x01); 	//SW reset
 943              		.loc 1 207 2
 944              	.LBB190:
 945              	.LBB191:
 118:lcd.c         **** }
 946              		.loc 1 118 5
 947 00a0 0545     		li	a0,1
 948 00a2 97000000 		call	LCD_Write_Bus
 948      E7800000 
 949              	.LVL75:
 950              	.LBE191:
GAS LISTING C:\Users\nesre\AppData\Local\Temp\ccPTohGt.s 			page 23


 951              	.LBE190:
 208:lcd.c         **** 	LCD_Wait_On_Queue();
 952              		.loc 1 208 2
 953 00aa 97000000 		call	LCD_Wait_On_Queue
 953      E7800000 
 954              	.LVL76:
 209:lcd.c         **** 	lcd_delay_1ms(120);
 955              		.loc 1 209 2
 956 00b2 13058007 		li	a0,120
 957 00b6 97000000 		call	lcd_delay_1ms
 957      E7800000 
 958              	.LVL77:
 210:lcd.c         **** 	
 211:lcd.c         **** 
 212:lcd.c         **** 	LCD_WR_REG(0x11); 	//SLPOUT
 959              		.loc 1 212 2
 960              	.LBB192:
 961              	.LBB193:
 118:lcd.c         **** }
 962              		.loc 1 118 5
 963 00be 4545     		li	a0,17
 964 00c0 97000000 		call	LCD_Write_Bus
 964      E7800000 
 965              	.LVL78:
 966              	.LBE193:
 967              	.LBE192:
 213:lcd.c         **** 	LCD_Wait_On_Queue();
 968              		.loc 1 213 2
 969 00c8 97000000 		call	LCD_Wait_On_Queue
 969      E7800000 
 970              	.LVL79:
 214:lcd.c         **** 	lcd_delay_1ms(100);
 971              		.loc 1 214 2
 972 00d0 13054006 		li	a0,100
 973 00d4 97000000 		call	lcd_delay_1ms
 973      E7800000 
 974              	.LVL80:
 215:lcd.c         **** 
 216:lcd.c         **** 	if(lcd_conf.inverted) LCD_WR_REG(0x22); 
 975              		.loc 1 216 2
 976              		.loc 1 216 4 is_stmt 0
 977 00dc 83471400 		lbu	a5,1(s0)
 978              	.LBB194:
 979              	.LBB195:
 118:lcd.c         **** }
 980              		.loc 1 118 5
 981 00e0 13052002 		li	a0,34
 982              	.LBE195:
 983              	.LBE194:
 984              		.loc 1 216 4
 985 00e4 99E3     		bne	a5,zero,.L48
 217:lcd.c         **** 	else				  LCD_WR_REG(0x21); 	//INVON
 986              		.loc 1 217 12 is_stmt 1
 987              	.LVL81:
 988              	.LBB196:
 989              	.LBB197:
 118:lcd.c         **** }
GAS LISTING C:\Users\nesre\AppData\Local\Temp\ccPTohGt.s 			page 24


 990              		.loc 1 118 5
 991 00e6 13051002 		li	a0,33
 992              	.LVL82:
 993              	.L48:
 994 00ea 97000000 		call	LCD_Write_Bus
 994      E7800000 
 995              	.LVL83:
 996              	.LBE197:
 997              	.LBE196:
 218:lcd.c         **** 
 219:lcd.c         **** 	LCD_WR_REG(0xB1); 	//FRMCTRL1 - Full color
 998              		.loc 1 219 2
 999              	.LBB198:
 1000              	.LBB199:
 118:lcd.c         **** }
 1001              		.loc 1 118 5
 1002 00f2 1305100B 		li	a0,177
 1003 00f6 97000000 		call	LCD_Write_Bus
 1003      E7800000 
 1004              	.LVL84:
 1005              	.LBE199:
 1006              	.LBE198:
 220:lcd.c         **** 	LCD_WR_DATA8(0x05); // Framerate = 333khz / (25) * (196) = 67.9fps
 1007              		.loc 1 220 2
 1008              	.LBB200:
 1009              	.LBB201:
  90:lcd.c         **** }
 1010              		.loc 1 90 5
 1011 00fe 13055010 		li	a0,261
 1012 0102 97000000 		call	LCD_Write_Bus
 1012      E7800000 
 1013              	.LVL85:
 1014              	.LBE201:
 1015              	.LBE200:
 221:lcd.c         **** 	LCD_WR_DATA8(0x3A);
 1016              		.loc 1 221 2
 1017              	.LBB202:
 1018              	.LBB203:
  90:lcd.c         **** }
 1019              		.loc 1 90 5
 1020 010a 1305A013 		li	a0,314
 1021 010e 97000000 		call	LCD_Write_Bus
 1021      E7800000 
 1022              	.LVL86:
 1023              	.LBE203:
 1024              	.LBE202:
 222:lcd.c         **** 	LCD_WR_DATA8(0x3A);
 1025              		.loc 1 222 2
 1026              	.LBB204:
 1027              	.LBB205:
  90:lcd.c         **** }
 1028              		.loc 1 90 5
 1029 0116 1305A013 		li	a0,314
 1030 011a 97000000 		call	LCD_Write_Bus
 1030      E7800000 
 1031              	.LVL87:
 1032              	.LBE205:
GAS LISTING C:\Users\nesre\AppData\Local\Temp\ccPTohGt.s 			page 25


 1033              	.LBE204:
 223:lcd.c         **** 
 224:lcd.c         **** 	LCD_WR_REG(0xB2);	//FRMCTRL - 8-bit color
 1034              		.loc 1 224 2
 1035              	.LBB206:
 1036              	.LBB207:
 118:lcd.c         **** }
 1037              		.loc 1 118 5
 1038 0122 1305200B 		li	a0,178
 1039 0126 97000000 		call	LCD_Write_Bus
 1039      E7800000 
 1040              	.LVL88:
 1041              	.LBE207:
 1042              	.LBE206:
 225:lcd.c         **** 	LCD_WR_DATA8(0x05); //fps = 67.9
 1043              		.loc 1 225 2
 1044              	.LBB208:
 1045              	.LBB209:
  90:lcd.c         **** }
 1046              		.loc 1 90 5
 1047 012e 13055010 		li	a0,261
 1048 0132 97000000 		call	LCD_Write_Bus
 1048      E7800000 
 1049              	.LVL89:
 1050              	.LBE209:
 1051              	.LBE208:
 226:lcd.c         **** 	LCD_WR_DATA8(0x3A);
 1052              		.loc 1 226 2
 1053              	.LBB210:
 1054              	.LBB211:
  90:lcd.c         **** }
 1055              		.loc 1 90 5
 1056 013a 1305A013 		li	a0,314
 1057 013e 97000000 		call	LCD_Write_Bus
 1057      E7800000 
 1058              	.LVL90:
 1059              	.LBE211:
 1060              	.LBE210:
 227:lcd.c         **** 	LCD_WR_DATA8(0x3A);
 1061              		.loc 1 227 2
 1062              	.LBB212:
 1063              	.LBB213:
  90:lcd.c         **** }
 1064              		.loc 1 90 5
 1065 0146 1305A013 		li	a0,314
 1066 014a 97000000 		call	LCD_Write_Bus
 1066      E7800000 
 1067              	.LVL91:
 1068              	.LBE213:
 1069              	.LBE212:
 228:lcd.c         **** 
 229:lcd.c         **** 	LCD_WR_REG(0xB3);   //Partial mode
 1070              		.loc 1 229 2
 1071              	.LBB214:
 1072              	.LBB215:
 118:lcd.c         **** }
 1073              		.loc 1 118 5
GAS LISTING C:\Users\nesre\AppData\Local\Temp\ccPTohGt.s 			page 26


 1074 0152 1305300B 		li	a0,179
 1075 0156 97000000 		call	LCD_Write_Bus
 1075      E7800000 
 1076              	.LVL92:
 1077              	.LBE215:
 1078              	.LBE214:
 230:lcd.c         **** 	LCD_WR_DATA8(0x05);  
 1079              		.loc 1 230 2
 1080              	.LBB216:
 1081              	.LBB217:
  90:lcd.c         **** }
 1082              		.loc 1 90 5
 1083 015e 13055010 		li	a0,261
 1084 0162 97000000 		call	LCD_Write_Bus
 1084      E7800000 
 1085              	.LVL93:
 1086              	.LBE217:
 1087              	.LBE216:
 231:lcd.c         **** 	LCD_WR_DATA8(0x3A);
 1088              		.loc 1 231 2
 1089              	.LBB218:
 1090              	.LBB219:
  90:lcd.c         **** }
 1091              		.loc 1 90 5
 1092 016a 1305A013 		li	a0,314
 1093 016e 97000000 		call	LCD_Write_Bus
 1093      E7800000 
 1094              	.LVL94:
 1095              	.LBE219:
 1096              	.LBE218:
 232:lcd.c         **** 	LCD_WR_DATA8(0x3A);
 1097              		.loc 1 232 2
 1098              	.LBB220:
 1099              	.LBB221:
  90:lcd.c         **** }
 1100              		.loc 1 90 5
 1101 0176 1305A013 		li	a0,314
 1102 017a 97000000 		call	LCD_Write_Bus
 1102      E7800000 
 1103              	.LVL95:
 1104              	.LBE221:
 1105              	.LBE220:
 233:lcd.c         **** 	LCD_WR_DATA8(0x05);
 1106              		.loc 1 233 2
 1107              	.LBB222:
 1108              	.LBB223:
  90:lcd.c         **** }
 1109              		.loc 1 90 5
 1110 0182 13055010 		li	a0,261
 1111 0186 97000000 		call	LCD_Write_Bus
 1111      E7800000 
 1112              	.LVL96:
 1113              	.LBE223:
 1114              	.LBE222:
 234:lcd.c         **** 	LCD_WR_DATA8(0x3A);
 1115              		.loc 1 234 2
 1116              	.LBB224:
GAS LISTING C:\Users\nesre\AppData\Local\Temp\ccPTohGt.s 			page 27


 1117              	.LBB225:
  90:lcd.c         **** }
 1118              		.loc 1 90 5
 1119 018e 1305A013 		li	a0,314
 1120 0192 97000000 		call	LCD_Write_Bus
 1120      E7800000 
 1121              	.LVL97:
 1122              	.LBE225:
 1123              	.LBE224:
 235:lcd.c         **** 	LCD_WR_DATA8(0x3A);
 1124              		.loc 1 235 2
 1125              	.LBB226:
 1126              	.LBB227:
  90:lcd.c         **** }
 1127              		.loc 1 90 5
 1128 019a 1305A013 		li	a0,314
 1129 019e 97000000 		call	LCD_Write_Bus
 1129      E7800000 
 1130              	.LVL98:
 1131              	.LBE227:
 1132              	.LBE226:
 236:lcd.c         **** 
 237:lcd.c         **** 	LCD_WR_REG(0xB4);  //INVCTR - Inversion control
 1133              		.loc 1 237 2
 1134              	.LBB228:
 1135              	.LBB229:
 118:lcd.c         **** }
 1136              		.loc 1 118 5
 1137 01a6 1305400B 		li	a0,180
 1138 01aa 97000000 		call	LCD_Write_Bus
 1138      E7800000 
 1139              	.LVL99:
 1140              	.LBE229:
 1141              	.LBE228:
 238:lcd.c         **** 	LCD_WR_DATA8(0x03);//Line inversion(full color) | Frame inversion
 1142              		.loc 1 238 2
 1143              	.LBB230:
 1144              	.LBB231:
  90:lcd.c         **** }
 1145              		.loc 1 90 5
 1146 01b2 13053010 		li	a0,259
 1147 01b6 97000000 		call	LCD_Write_Bus
 1147      E7800000 
 1148              	.LVL100:
 1149              	.LBE231:
 1150              	.LBE230:
 239:lcd.c         **** 
 240:lcd.c         **** 	LCD_WR_REG(0xC0);  //PWRCTR1 - Set GVDD voltage
 1151              		.loc 1 240 2
 1152              	.LBB232:
 1153              	.LBB233:
 118:lcd.c         **** }
 1154              		.loc 1 118 5
 1155 01be 1305000C 		li	a0,192
 1156 01c2 97000000 		call	LCD_Write_Bus
 1156      E7800000 
 1157              	.LVL101:
GAS LISTING C:\Users\nesre\AppData\Local\Temp\ccPTohGt.s 			page 28


 1158              	.LBE233:
 1159              	.LBE232:
 241:lcd.c         **** 	LCD_WR_DATA8(0x62);//
 1160              		.loc 1 241 2
 1161              	.LBB234:
 1162              	.LBB235:
  90:lcd.c         **** }
 1163              		.loc 1 90 5
 1164 01ca 13052016 		li	a0,354
 1165 01ce 97000000 		call	LCD_Write_Bus
 1165      E7800000 
 1166              	.LVL102:
 1167              	.LBE235:
 1168              	.LBE234:
 242:lcd.c         **** 	LCD_WR_DATA8(0x02);//
 1169              		.loc 1 242 2
 1170              	.LBB236:
 1171              	.LBB237:
  90:lcd.c         **** }
 1172              		.loc 1 90 5
 1173 01d6 13052010 		li	a0,258
 1174 01da 97000000 		call	LCD_Write_Bus
 1174      E7800000 
 1175              	.LVL103:
 1176              	.LBE237:
 1177              	.LBE236:
 243:lcd.c         **** 	LCD_WR_DATA8(0x04);//
 1178              		.loc 1 243 2
 1179              	.LBB238:
 1180              	.LBB239:
  90:lcd.c         **** }
 1181              		.loc 1 90 5
 1182 01e2 13054010 		li	a0,260
 1183 01e6 97000000 		call	LCD_Write_Bus
 1183      E7800000 
 1184              	.LVL104:
 1185              	.LBE239:
 1186              	.LBE238:
 244:lcd.c         **** 
 245:lcd.c         **** 	LCD_WR_REG(0xC1); //More power regulation
 1187              		.loc 1 245 2
 1188              	.LBB240:
 1189              	.LBB241:
 118:lcd.c         **** }
 1190              		.loc 1 118 5
 1191 01ee 1305100C 		li	a0,193
 1192 01f2 97000000 		call	LCD_Write_Bus
 1192      E7800000 
 1193              	.LVL105:
 1194              	.LBE241:
 1195              	.LBE240:
 246:lcd.c         **** 	LCD_WR_DATA8(0xC0);
 1196              		.loc 1 246 2
 1197              	.LBB242:
 1198              	.LBB243:
  90:lcd.c         **** }
 1199              		.loc 1 90 5
GAS LISTING C:\Users\nesre\AppData\Local\Temp\ccPTohGt.s 			page 29


 1200 01fa 1305001C 		li	a0,448
 1201 01fe 97000000 		call	LCD_Write_Bus
 1201      E7800000 
 1202              	.LVL106:
 1203              	.LBE243:
 1204              	.LBE242:
 247:lcd.c         **** 
 248:lcd.c         **** 	LCD_WR_REG(0xC2); //Same
 1205              		.loc 1 248 2
 1206              	.LBB244:
 1207              	.LBB245:
 118:lcd.c         **** }
 1208              		.loc 1 118 5
 1209 0206 1305200C 		li	a0,194
 1210 020a 97000000 		call	LCD_Write_Bus
 1210      E7800000 
 1211              	.LVL107:
 1212              	.LBE245:
 1213              	.LBE244:
 249:lcd.c         **** 	LCD_WR_DATA8(0x0D);
 1214              		.loc 1 249 2
 1215              	.LBB246:
 1216              	.LBB247:
  90:lcd.c         **** }
 1217              		.loc 1 90 5
 1218 0212 1305D010 		li	a0,269
 1219 0216 97000000 		call	LCD_Write_Bus
 1219      E7800000 
 1220              	.LVL108:
 1221              	.LBE247:
 1222              	.LBE246:
 250:lcd.c         **** 	LCD_WR_DATA8(0x00);
 1223              		.loc 1 250 2
 1224              	.LBB248:
 1225              	.LBB249:
  90:lcd.c         **** }
 1226              		.loc 1 90 5
 1227 021e 13050010 		li	a0,256
 1228 0222 97000000 		call	LCD_Write_Bus
 1228      E7800000 
 1229              	.LVL109:
 1230              	.LBE249:
 1231              	.LBE248:
 251:lcd.c         **** 
 252:lcd.c         **** 	LCD_WR_REG(0xC3); //same
 1232              		.loc 1 252 2
 1233              	.LBB250:
 1234              	.LBB251:
 118:lcd.c         **** }
 1235              		.loc 1 118 5
 1236 022a 1305300C 		li	a0,195
 1237 022e 97000000 		call	LCD_Write_Bus
 1237      E7800000 
 1238              	.LVL110:
 1239              	.LBE251:
 1240              	.LBE250:
 253:lcd.c         **** 	LCD_WR_DATA8(0x8D);
GAS LISTING C:\Users\nesre\AppData\Local\Temp\ccPTohGt.s 			page 30


 1241              		.loc 1 253 2
 1242              	.LBB252:
 1243              	.LBB253:
  90:lcd.c         **** }
 1244              		.loc 1 90 5
 1245 0236 1305D018 		li	a0,397
 1246 023a 97000000 		call	LCD_Write_Bus
 1246      E7800000 
 1247              	.LVL111:
 1248              	.LBE253:
 1249              	.LBE252:
 254:lcd.c         **** 	LCD_WR_DATA8(0x6A);   
 1250              		.loc 1 254 2
 1251              	.LBB254:
 1252              	.LBB255:
  90:lcd.c         **** }
 1253              		.loc 1 90 5
 1254 0242 1305A016 		li	a0,362
 1255 0246 97000000 		call	LCD_Write_Bus
 1255      E7800000 
 1256              	.LVL112:
 1257              	.LBE255:
 1258              	.LBE254:
 255:lcd.c         **** 
 256:lcd.c         **** 	LCD_WR_REG(0xC4);
 1259              		.loc 1 256 2
 1260              	.LBB256:
 1261              	.LBB257:
 118:lcd.c         **** }
 1262              		.loc 1 118 5
 1263 024e 1305400C 		li	a0,196
 1264 0252 97000000 		call	LCD_Write_Bus
 1264      E7800000 
 1265              	.LVL113:
 1266              	.LBE257:
 1267              	.LBE256:
 257:lcd.c         **** 	LCD_WR_DATA8(0x8D); 
 1268              		.loc 1 257 2
 1269              	.LBB258:
 1270              	.LBB259:
  90:lcd.c         **** }
 1271              		.loc 1 90 5
 1272 025a 1305D018 		li	a0,397
 1273 025e 97000000 		call	LCD_Write_Bus
 1273      E7800000 
 1274              	.LVL114:
 1275              	.LBE259:
 1276              	.LBE258:
 258:lcd.c         **** 	LCD_WR_DATA8(0xEE); 
 1277              		.loc 1 258 2
 1278              	.LBB260:
 1279              	.LBB261:
  90:lcd.c         **** }
 1280              		.loc 1 90 5
 1281 0266 1305E01E 		li	a0,494
 1282 026a 97000000 		call	LCD_Write_Bus
 1282      E7800000 
GAS LISTING C:\Users\nesre\AppData\Local\Temp\ccPTohGt.s 			page 31


 1283              	.LVL115:
 1284              	.LBE261:
 1285              	.LBE260:
 259:lcd.c         **** 
 260:lcd.c         **** 	LCD_WR_REG(0xC5);  /*VCOM*/
 1286              		.loc 1 260 2
 1287              	.LBB262:
 1288              	.LBB263:
 118:lcd.c         **** }
 1289              		.loc 1 118 5
 1290 0272 1305500C 		li	a0,197
 1291 0276 97000000 		call	LCD_Write_Bus
 1291      E7800000 
 1292              	.LVL116:
 1293              	.LBE263:
 1294              	.LBE262:
 261:lcd.c         **** 	LCD_WR_DATA8(0x0E);    
 1295              		.loc 1 261 2
 1296              	.LBB264:
 1297              	.LBB265:
  90:lcd.c         **** }
 1298              		.loc 1 90 5
 1299 027e 1305E010 		li	a0,270
 1300 0282 97000000 		call	LCD_Write_Bus
 1300      E7800000 
 1301              	.LVL117:
 1302              	.LBE265:
 1303              	.LBE264:
 262:lcd.c         **** 
 263:lcd.c         **** 	LCD_WR_REG(0xE0);  //Gamma correction
 1304              		.loc 1 263 2
 1305              	.LBB266:
 1306              	.LBB267:
 118:lcd.c         **** }
 1307              		.loc 1 118 5
 1308 028a 1305000E 		li	a0,224
 1309 028e 97000000 		call	LCD_Write_Bus
 1309      E7800000 
 1310              	.LVL118:
 1311              	.LBE267:
 1312              	.LBE266:
 264:lcd.c         **** 	LCD_WR_DATA8(0x10);
 1313              		.loc 1 264 2
 1314              	.LBB268:
 1315              	.LBB269:
  90:lcd.c         **** }
 1316              		.loc 1 90 5
 1317 0296 13050011 		li	a0,272
 1318 029a 97000000 		call	LCD_Write_Bus
 1318      E7800000 
 1319              	.LVL119:
 1320              	.LBE269:
 1321              	.LBE268:
 265:lcd.c         **** 	LCD_WR_DATA8(0x0E);
 1322              		.loc 1 265 2
 1323              	.LBB270:
 1324              	.LBB271:
GAS LISTING C:\Users\nesre\AppData\Local\Temp\ccPTohGt.s 			page 32


  90:lcd.c         **** }
 1325              		.loc 1 90 5
 1326 02a2 1305E010 		li	a0,270
 1327 02a6 97000000 		call	LCD_Write_Bus
 1327      E7800000 
 1328              	.LVL120:
 1329              	.LBE271:
 1330              	.LBE270:
 266:lcd.c         **** 	LCD_WR_DATA8(0x02);
 1331              		.loc 1 266 2
 1332              	.LBB272:
 1333              	.LBB273:
  90:lcd.c         **** }
 1334              		.loc 1 90 5
 1335 02ae 13052010 		li	a0,258
 1336 02b2 97000000 		call	LCD_Write_Bus
 1336      E7800000 
 1337              	.LVL121:
 1338              	.LBE273:
 1339              	.LBE272:
 267:lcd.c         **** 	LCD_WR_DATA8(0x03);
 1340              		.loc 1 267 2
 1341              	.LBB274:
 1342              	.LBB275:
  90:lcd.c         **** }
 1343              		.loc 1 90 5
 1344 02ba 13053010 		li	a0,259
 1345 02be 97000000 		call	LCD_Write_Bus
 1345      E7800000 
 1346              	.LVL122:
 1347              	.LBE275:
 1348              	.LBE274:
 268:lcd.c         **** 	LCD_WR_DATA8(0x0E);
 1349              		.loc 1 268 2
 1350              	.LBB276:
 1351              	.LBB277:
  90:lcd.c         **** }
 1352              		.loc 1 90 5
 1353 02c6 1305E010 		li	a0,270
 1354 02ca 97000000 		call	LCD_Write_Bus
 1354      E7800000 
 1355              	.LVL123:
 1356              	.LBE277:
 1357              	.LBE276:
 269:lcd.c         **** 	LCD_WR_DATA8(0x07);
 1358              		.loc 1 269 2
 1359              	.LBB278:
 1360              	.LBB279:
  90:lcd.c         **** }
 1361              		.loc 1 90 5
 1362 02d2 13057010 		li	a0,263
 1363 02d6 97000000 		call	LCD_Write_Bus
 1363      E7800000 
 1364              	.LVL124:
 1365              	.LBE279:
 1366              	.LBE278:
 270:lcd.c         **** 	LCD_WR_DATA8(0x02);
GAS LISTING C:\Users\nesre\AppData\Local\Temp\ccPTohGt.s 			page 33


 1367              		.loc 1 270 2
 1368              	.LBB280:
 1369              	.LBB281:
  90:lcd.c         **** }
 1370              		.loc 1 90 5
 1371 02de 13052010 		li	a0,258
 1372 02e2 97000000 		call	LCD_Write_Bus
 1372      E7800000 
 1373              	.LVL125:
 1374              	.LBE281:
 1375              	.LBE280:
 271:lcd.c         **** 	LCD_WR_DATA8(0x07);
 1376              		.loc 1 271 2
 1377              	.LBB282:
 1378              	.LBB283:
  90:lcd.c         **** }
 1379              		.loc 1 90 5
 1380 02ea 13057010 		li	a0,263
 1381 02ee 97000000 		call	LCD_Write_Bus
 1381      E7800000 
 1382              	.LVL126:
 1383              	.LBE283:
 1384              	.LBE282:
 272:lcd.c         **** 	LCD_WR_DATA8(0x0A);
 1385              		.loc 1 272 2
 1386              	.LBB284:
 1387              	.LBB285:
  90:lcd.c         **** }
 1388              		.loc 1 90 5
 1389 02f6 1305A010 		li	a0,266
 1390 02fa 97000000 		call	LCD_Write_Bus
 1390      E7800000 
 1391              	.LVL127:
 1392              	.LBE285:
 1393              	.LBE284:
 273:lcd.c         **** 	LCD_WR_DATA8(0x12);
 1394              		.loc 1 273 2
 1395              	.LBB286:
 1396              	.LBB287:
  90:lcd.c         **** }
 1397              		.loc 1 90 5
 1398 0302 13052011 		li	a0,274
 1399 0306 97000000 		call	LCD_Write_Bus
 1399      E7800000 
 1400              	.LVL128:
 1401              	.LBE287:
 1402              	.LBE286:
 274:lcd.c         **** 	LCD_WR_DATA8(0x27);
 1403              		.loc 1 274 2
 1404              	.LBB288:
 1405              	.LBB289:
  90:lcd.c         **** }
 1406              		.loc 1 90 5
 1407 030e 13057012 		li	a0,295
 1408 0312 97000000 		call	LCD_Write_Bus
 1408      E7800000 
 1409              	.LVL129:
GAS LISTING C:\Users\nesre\AppData\Local\Temp\ccPTohGt.s 			page 34


 1410              	.LBE289:
 1411              	.LBE288:
 275:lcd.c         **** 	LCD_WR_DATA8(0x37);
 1412              		.loc 1 275 2
 1413              	.LBB290:
 1414              	.LBB291:
  90:lcd.c         **** }
 1415              		.loc 1 90 5
 1416 031a 13057013 		li	a0,311
 1417 031e 97000000 		call	LCD_Write_Bus
 1417      E7800000 
 1418              	.LVL130:
 1419              	.LBE291:
 1420              	.LBE290:
 276:lcd.c         **** 	LCD_WR_DATA8(0x00);
 1421              		.loc 1 276 2
 1422              	.LBB292:
 1423              	.LBB293:
  90:lcd.c         **** }
 1424              		.loc 1 90 5
 1425 0326 13050010 		li	a0,256
 1426 032a 97000000 		call	LCD_Write_Bus
 1426      E7800000 
 1427              	.LVL131:
 1428              	.LBE293:
 1429              	.LBE292:
 277:lcd.c         **** 	LCD_WR_DATA8(0x0D);
 1430              		.loc 1 277 2
 1431              	.LBB294:
 1432              	.LBB295:
  90:lcd.c         **** }
 1433              		.loc 1 90 5
 1434 0332 1305D010 		li	a0,269
 1435 0336 97000000 		call	LCD_Write_Bus
 1435      E7800000 
 1436              	.LVL132:
 1437              	.LBE295:
 1438              	.LBE294:
 278:lcd.c         **** 	LCD_WR_DATA8(0x0E);
 1439              		.loc 1 278 2
 1440              	.LBB296:
 1441              	.LBB297:
  90:lcd.c         **** }
 1442              		.loc 1 90 5
 1443 033e 1305E010 		li	a0,270
 1444 0342 97000000 		call	LCD_Write_Bus
 1444      E7800000 
 1445              	.LVL133:
 1446              	.LBE297:
 1447              	.LBE296:
 279:lcd.c         **** 	LCD_WR_DATA8(0x10);
 1448              		.loc 1 279 2
 1449              	.LBB298:
 1450              	.LBB299:
  90:lcd.c         **** }
 1451              		.loc 1 90 5
 1452 034a 13050011 		li	a0,272
GAS LISTING C:\Users\nesre\AppData\Local\Temp\ccPTohGt.s 			page 35


 1453 034e 97000000 		call	LCD_Write_Bus
 1453      E7800000 
 1454              	.LVL134:
 1455              	.LBE299:
 1456              	.LBE298:
 280:lcd.c         **** 
 281:lcd.c         **** 	LCD_WR_REG(0xE1);
 1457              		.loc 1 281 2
 1458              	.LBB300:
 1459              	.LBB301:
 118:lcd.c         **** }
 1460              		.loc 1 118 5
 1461 0356 1305100E 		li	a0,225
 1462 035a 97000000 		call	LCD_Write_Bus
 1462      E7800000 
 1463              	.LVL135:
 1464              	.LBE301:
 1465              	.LBE300:
 282:lcd.c         **** 	LCD_WR_DATA8(0x10);
 1466              		.loc 1 282 2
 1467              	.LBB302:
 1468              	.LBB303:
  90:lcd.c         **** }
 1469              		.loc 1 90 5
 1470 0362 13050011 		li	a0,272
 1471 0366 97000000 		call	LCD_Write_Bus
 1471      E7800000 
 1472              	.LVL136:
 1473              	.LBE303:
 1474              	.LBE302:
 283:lcd.c         **** 	LCD_WR_DATA8(0x0E);
 1475              		.loc 1 283 2
 1476              	.LBB304:
 1477              	.LBB305:
  90:lcd.c         **** }
 1478              		.loc 1 90 5
 1479 036e 1305E010 		li	a0,270
 1480 0372 97000000 		call	LCD_Write_Bus
 1480      E7800000 
 1481              	.LVL137:
 1482              	.LBE305:
 1483              	.LBE304:
 284:lcd.c         **** 	LCD_WR_DATA8(0x03);
 1484              		.loc 1 284 2
 1485              	.LBB306:
 1486              	.LBB307:
  90:lcd.c         **** }
 1487              		.loc 1 90 5
 1488 037a 13053010 		li	a0,259
 1489 037e 97000000 		call	LCD_Write_Bus
 1489      E7800000 
 1490              	.LVL138:
 1491              	.LBE307:
 1492              	.LBE306:
 285:lcd.c         **** 	LCD_WR_DATA8(0x03);
 1493              		.loc 1 285 2
 1494              	.LBB308:
GAS LISTING C:\Users\nesre\AppData\Local\Temp\ccPTohGt.s 			page 36


 1495              	.LBB309:
  90:lcd.c         **** }
 1496              		.loc 1 90 5
 1497 0386 13053010 		li	a0,259
 1498 038a 97000000 		call	LCD_Write_Bus
 1498      E7800000 
 1499              	.LVL139:
 1500              	.LBE309:
 1501              	.LBE308:
 286:lcd.c         **** 	LCD_WR_DATA8(0x0F);
 1502              		.loc 1 286 2
 1503              	.LBB310:
 1504              	.LBB311:
  90:lcd.c         **** }
 1505              		.loc 1 90 5
 1506 0392 1305F010 		li	a0,271
 1507 0396 97000000 		call	LCD_Write_Bus
 1507      E7800000 
 1508              	.LVL140:
 1509              	.LBE311:
 1510              	.LBE310:
 287:lcd.c         **** 	LCD_WR_DATA8(0x06);
 1511              		.loc 1 287 2
 1512              	.LBB312:
 1513              	.LBB313:
  90:lcd.c         **** }
 1514              		.loc 1 90 5
 1515 039e 13056010 		li	a0,262
 1516 03a2 97000000 		call	LCD_Write_Bus
 1516      E7800000 
 1517              	.LVL141:
 1518              	.LBE313:
 1519              	.LBE312:
 288:lcd.c         **** 	LCD_WR_DATA8(0x02);
 1520              		.loc 1 288 2
 1521              	.LBB314:
 1522              	.LBB315:
  90:lcd.c         **** }
 1523              		.loc 1 90 5
 1524 03aa 13052010 		li	a0,258
 1525 03ae 97000000 		call	LCD_Write_Bus
 1525      E7800000 
 1526              	.LVL142:
 1527              	.LBE315:
 1528              	.LBE314:
 289:lcd.c         **** 	LCD_WR_DATA8(0x08);
 1529              		.loc 1 289 2
 1530              	.LBB316:
 1531              	.LBB317:
  90:lcd.c         **** }
 1532              		.loc 1 90 5
 1533 03b6 13058010 		li	a0,264
 1534 03ba 97000000 		call	LCD_Write_Bus
 1534      E7800000 
 1535              	.LVL143:
 1536              	.LBE317:
 1537              	.LBE316:
GAS LISTING C:\Users\nesre\AppData\Local\Temp\ccPTohGt.s 			page 37


 290:lcd.c         **** 	LCD_WR_DATA8(0x0A);
 1538              		.loc 1 290 2
 1539              	.LBB318:
 1540              	.LBB319:
  90:lcd.c         **** }
 1541              		.loc 1 90 5
 1542 03c2 1305A010 		li	a0,266
 1543 03c6 97000000 		call	LCD_Write_Bus
 1543      E7800000 
 1544              	.LVL144:
 1545              	.LBE319:
 1546              	.LBE318:
 291:lcd.c         **** 	LCD_WR_DATA8(0x13);
 1547              		.loc 1 291 2
 1548              	.LBB320:
 1549              	.LBB321:
  90:lcd.c         **** }
 1550              		.loc 1 90 5
 1551 03ce 13053011 		li	a0,275
 1552 03d2 97000000 		call	LCD_Write_Bus
 1552      E7800000 
 1553              	.LVL145:
 1554              	.LBE321:
 1555              	.LBE320:
 292:lcd.c         **** 	LCD_WR_DATA8(0x26);
 1556              		.loc 1 292 2
 1557              	.LBB322:
 1558              	.LBB323:
  90:lcd.c         **** }
 1559              		.loc 1 90 5
 1560 03da 13056012 		li	a0,294
 1561 03de 97000000 		call	LCD_Write_Bus
 1561      E7800000 
 1562              	.LVL146:
 1563              	.LBE323:
 1564              	.LBE322:
 293:lcd.c         **** 	LCD_WR_DATA8(0x36);
 1565              		.loc 1 293 2
 1566              	.LBB324:
 1567              	.LBB325:
  90:lcd.c         **** }
 1568              		.loc 1 90 5
 1569 03e6 13056013 		li	a0,310
 1570 03ea 97000000 		call	LCD_Write_Bus
 1570      E7800000 
 1571              	.LVL147:
 1572              	.LBE325:
 1573              	.LBE324:
 294:lcd.c         **** 	LCD_WR_DATA8(0x00);
 1574              		.loc 1 294 2
 1575              	.LBB326:
 1576              	.LBB327:
  90:lcd.c         **** }
 1577              		.loc 1 90 5
 1578 03f2 13050010 		li	a0,256
 1579 03f6 97000000 		call	LCD_Write_Bus
 1579      E7800000 
GAS LISTING C:\Users\nesre\AppData\Local\Temp\ccPTohGt.s 			page 38


 1580              	.LVL148:
 1581              	.LBE327:
 1582              	.LBE326:
 295:lcd.c         **** 	LCD_WR_DATA8(0x0D);
 1583              		.loc 1 295 2
 1584              	.LBB328:
 1585              	.LBB329:
  90:lcd.c         **** }
 1586              		.loc 1 90 5
 1587 03fe 1305D010 		li	a0,269
 1588 0402 97000000 		call	LCD_Write_Bus
 1588      E7800000 
 1589              	.LVL149:
 1590              	.LBE329:
 1591              	.LBE328:
 296:lcd.c         **** 	LCD_WR_DATA8(0x0E);
 1592              		.loc 1 296 2
 1593              	.LBB330:
 1594              	.LBB331:
  90:lcd.c         **** }
 1595              		.loc 1 90 5
 1596 040a 1305E010 		li	a0,270
 1597 040e 97000000 		call	LCD_Write_Bus
 1597      E7800000 
 1598              	.LVL150:
 1599              	.LBE331:
 1600              	.LBE330:
 297:lcd.c         **** 	LCD_WR_DATA8(0x10);
 1601              		.loc 1 297 2
 1602              	.LBB332:
 1603              	.LBB333:
  90:lcd.c         **** }
 1604              		.loc 1 90 5
 1605 0416 13050011 		li	a0,272
 1606 041a 97000000 		call	LCD_Write_Bus
 1606      E7800000 
 1607              	.LVL151:
 1608              	.LBE333:
 1609              	.LBE332:
 298:lcd.c         **** 
 299:lcd.c         **** 	LCD_WR_REG(0x3A);  //Set color resolution
 1610              		.loc 1 299 2
 1611              	.LBB334:
 1612              	.LBB335:
 118:lcd.c         **** }
 1613              		.loc 1 118 5
 1614 0422 1305A003 		li	a0,58
 1615 0426 97000000 		call	LCD_Write_Bus
 1615      E7800000 
 1616              	.LVL152:
 1617              	.LBE335:
 1618              	.LBE334:
 300:lcd.c         **** 	LCD_WR_DATA8(0x05);//16 bit color
 1619              		.loc 1 300 2
 1620              	.LBB336:
 1621              	.LBB337:
  90:lcd.c         **** }
GAS LISTING C:\Users\nesre\AppData\Local\Temp\ccPTohGt.s 			page 39


 1622              		.loc 1 90 5
 1623 042e 13055010 		li	a0,261
 1624 0432 97000000 		call	LCD_Write_Bus
 1624      E7800000 
 1625              	.LVL153:
 1626              	.LBE337:
 1627              	.LBE336:
 301:lcd.c         **** 
 302:lcd.c         **** 	LCD_WR_REG(0x36); //Data access mode
 1628              		.loc 1 302 2
 1629              	.LBB338:
 1630              	.LBB339:
 118:lcd.c         **** }
 1631              		.loc 1 118 5
 1632 043a 13056003 		li	a0,54
 1633 043e 97000000 		call	LCD_Write_Bus
 1633      E7800000 
 1634              	.LVL154:
 1635              	.LBE339:
 1636              	.LBE338:
 303:lcd.c         **** 	LCD_WR_DATA8(0x78);
 1637              		.loc 1 303 2
 1638              	.LBB340:
 1639              	.LBB341:
  90:lcd.c         **** }
 1640              		.loc 1 90 5
 1641 0446 13058017 		li	a0,376
 1642 044a 97000000 		call	LCD_Write_Bus
 1642      E7800000 
 1643              	.LVL155:
 1644              	.LBE341:
 1645              	.LBE340:
 304:lcd.c         **** 	LCD_WR_REG(0x29); 
 1646              		.loc 1 304 2
 1647              	.LBB342:
 1648              	.LBB343:
 118:lcd.c         **** }
 1649              		.loc 1 118 5
 1650              	.LBE343:
 1651              	.LBE342:
 305:lcd.c         **** } 
 1652              		.loc 1 305 1 is_stmt 0
 1653 0452 2244     		lw	s0,8(sp)
 1654              		.cfi_restore 8
 1655 0454 B240     		lw	ra,12(sp)
 1656              		.cfi_restore 1
 1657              	.LBB346:
 1658              	.LBB344:
 118:lcd.c         **** }
 1659              		.loc 1 118 5
 1660 0456 13059002 		li	a0,41
 1661              	.LBE344:
 1662              	.LBE346:
 1663              		.loc 1 305 1
 1664 045a 4101     		addi	sp,sp,16
 1665              	.LCFI21:
 1666              		.cfi_def_cfa_offset 0
GAS LISTING C:\Users\nesre\AppData\Local\Temp\ccPTohGt.s 			page 40


 1667              	.LBB347:
 1668              	.LBB345:
 118:lcd.c         **** }
 1669              		.loc 1 118 5
 1670 045c 17030000 		tail	LCD_Write_Bus
 1670      67000300 
 1671              	.LVL156:
 1672              	.LBE345:
 1673              	.LBE347:
 1674              		.cfi_endproc
 1675              	.LFE13:
 1677              		.section	.text.LCD_Clear,"ax",@progbits
 1678              		.align	1
 1679              		.globl	LCD_Clear
 1681              	LCD_Clear:
 1682              	.LFB14:
 306:lcd.c         **** 
 307:lcd.c         **** 
 308:lcd.c         **** /*
 309:lcd.c         ****   Function description: LCD clear screen function
 310:lcd.c         ****   Entry data: Color: color to set as background
 311:lcd.c         ****   Return value: None
 312:lcd.c         **** */
 313:lcd.c         **** void LCD_Clear(u16 Color)
 314:lcd.c         **** {
 1683              		.loc 1 314 1 is_stmt 1
 1684              		.cfi_startproc
 1685              	.LVL157:
 315:lcd.c         **** 	u16 i,j;  	
 1686              		.loc 1 315 2
 316:lcd.c         **** 	LCD_Address_Set(0,0,LCD_W-1,LCD_H-1);
 1687              		.loc 1 316 2
 314:lcd.c         **** 	u16 i,j;  	
 1688              		.loc 1 314 1 is_stmt 0
 1689 0000 4111     		addi	sp,sp,-16
 1690              	.LCFI22:
 1691              		.cfi_def_cfa_offset 16
 1692 0002 4AC0     		sw	s2,0(sp)
 1693              		.loc 1 316 2
 1694 0004 9306F007 		li	a3,127
 1695              		.cfi_offset 18, -16
 314:lcd.c         **** 	u16 i,j;  	
 1696              		.loc 1 314 1
 1697 0008 2A89     		mv	s2,a0
 1698              		.loc 1 316 2
 1699 000a 1306F009 		li	a2,159
 1700 000e 8145     		li	a1,0
 1701 0010 0145     		li	a0,0
 1702              	.LVL158:
 314:lcd.c         **** 	u16 i,j;  	
 1703              		.loc 1 314 1
 1704 0012 26C2     		sw	s1,4(sp)
 1705 0014 06C6     		sw	ra,12(sp)
 1706 0016 22C4     		sw	s0,8(sp)
 1707              		.cfi_offset 9, -12
 1708              		.cfi_offset 1, -4
 1709              		.cfi_offset 8, -8
GAS LISTING C:\Users\nesre\AppData\Local\Temp\ccPTohGt.s 			page 41


 1710              		.loc 1 316 2
 1711 0018 9304000A 		li	s1,160
 1712 001c 97000000 		call	LCD_Address_Set
 1712      E7800000 
 1713              	.LVL159:
 317:lcd.c         ****     for(i=0;i<LCD_W;i++)
 1714              		.loc 1 317 5 is_stmt 1
 1715              	.L50:
 314:lcd.c         **** 	u16 i,j;  	
 1716              		.loc 1 314 1 is_stmt 0
 1717 0024 13040008 		li	s0,128
 1718              	.LVL160:
 1719              	.L51:
 318:lcd.c         **** 	  {
 319:lcd.c         **** 			for (j=0;j<LCD_H;j++)
 320:lcd.c         **** 				{
 321:lcd.c         **** 					LCD_WR_DATA(Color);
 1720              		.loc 1 321 6 is_stmt 1 discriminator 3
 1721 0028 4A85     		mv	a0,s2
 1722 002a 7D14     		addi	s0,s0,-1
 1723              	.LVL161:
 1724 002c 97000000 		call	LCD_WR_DATA
 1724      E7800000 
 1725              	.LVL162:
 319:lcd.c         **** 				{
 1726              		.loc 1 319 4 is_stmt 0 discriminator 3
 1727 0034 75F8     		bne	s0,zero,.L51
 1728              	.LVL163:
 1729 0036 FD14     		addi	s1,s1,-1
 1730              	.LVL164:
 317:lcd.c         ****     for(i=0;i<LCD_W;i++)
 1731              		.loc 1 317 5 discriminator 2
 1732 0038 F5F4     		bne	s1,zero,.L50
 322:lcd.c         **** 				}
 323:lcd.c         **** 	  }
 324:lcd.c         **** }
 1733              		.loc 1 324 1
 1734 003a B240     		lw	ra,12(sp)
 1735              		.cfi_restore 1
 1736 003c 2244     		lw	s0,8(sp)
 1737              		.cfi_restore 8
 1738 003e 9244     		lw	s1,4(sp)
 1739              		.cfi_restore 9
 1740              	.LVL165:
 1741 0040 0249     		lw	s2,0(sp)
 1742              		.cfi_restore 18
 1743              	.LVL166:
 1744 0042 4101     		addi	sp,sp,16
 1745              	.LCFI23:
 1746              		.cfi_def_cfa_offset 0
 1747 0044 8280     		jr	ra
 1748              		.cfi_endproc
 1749              	.LFE14:
 1751              		.section	.text.LCD_ShowChinese,"ax",@progbits
 1752              		.align	1
 1753              		.globl	LCD_ShowChinese
 1755              	LCD_ShowChinese:
GAS LISTING C:\Users\nesre\AppData\Local\Temp\ccPTohGt.s 			page 42


 1756              	.LFB15:
 325:lcd.c         **** 
 326:lcd.c         **** 
 327:lcd.c         **** /*
 328:lcd.c         ****   Function description: LCD display Chinese characters
 329:lcd.c         ****   Entry data:  x, y: start coordinates
 330:lcd.c         ****               index: Chinese character number
 331:lcd.c         ****                size: font size
 332:lcd.c         ****   Return value: None
 333:lcd.c         **** */
 334:lcd.c         **** void LCD_ShowChinese(u16 x,u16 y,u8 index,u8 size,u16 color)	
 335:lcd.c         **** {  
 1757              		.loc 1 335 1 is_stmt 1
 1758              		.cfi_startproc
 1759              	.LVL167:
 336:lcd.c         **** 	u8 i,j;
 1760              		.loc 1 336 2
 337:lcd.c         **** 	u8 *temp,size1;
 1761              		.loc 1 337 2
 338:lcd.c         **** 	if(size==16){temp=Hzk16;}               // Choose a font size
 1762              		.loc 1 338 2
 339:lcd.c         **** 	if(size==32){temp=Hzk32;}
 1763              		.loc 1 339 2
 335:lcd.c         **** 	u8 i,j;
 1764              		.loc 1 335 1 is_stmt 0
 1765 0000 0111     		addi	sp,sp,-32
 1766              	.LCFI24:
 1767              		.cfi_def_cfa_offset 32
 1768 0002 22CC     		sw	s0,24(sp)
 1769 0004 4AC8     		sw	s2,16(sp)
 1770 0006 4EC6     		sw	s3,12(sp)
 1771 0008 06CE     		sw	ra,28(sp)
 1772 000a 26CA     		sw	s1,20(sp)
 1773 000c 52C4     		sw	s4,8(sp)
 1774 000e 56C2     		sw	s5,4(sp)
 1775              		.cfi_offset 8, -8
 1776              		.cfi_offset 18, -16
 1777              		.cfi_offset 19, -20
 1778              		.cfi_offset 1, -4
 1779              		.cfi_offset 9, -12
 1780              		.cfi_offset 20, -24
 1781              		.cfi_offset 21, -28
 1782              		.loc 1 339 4
 1783 0010 93070002 		li	a5,32
 335:lcd.c         **** 	u8 i,j;
 1784              		.loc 1 335 1
 1785 0014 B289     		mv	s3,a2
 1786 0016 3684     		mv	s0,a3
 1787 0018 3A89     		mv	s2,a4
 1788              		.loc 1 339 4
 1789 001a 6397F604 		bne	a3,a5,.L61
 1790              		.loc 1 339 19
 1791 001e B7040000 		lui	s1,%hi(.LANCHOR5)
 1792 0022 93840400 		addi	s1,s1,%lo(.LANCHOR5)
 1793              	.L56:
 1794              	.LVL168:
 340:lcd.c         ****     LCD_Address_Set(x,y,x+size-1,y+size-1); // Set a region of Chinese characters
GAS LISTING C:\Users\nesre\AppData\Local\Temp\ccPTohGt.s 			page 43


 1795              		.loc 1 340 5 is_stmt 1
 1796 0026 9386F5FF 		addi	a3,a1,-1
 1797              	.LVL169:
 1798 002a 1306F5FF 		addi	a2,a0,-1
 1799              	.LVL170:
 1800 002e A296     		add	a3,a3,s0
 1801 0030 2296     		add	a2,a2,s0
 341:lcd.c         ****     size1=size*size/8;                      // The bytes occupied by a Chinese character
 1802              		.loc 1 341 15 is_stmt 0
 1803 0032 33048402 		mul	s0,s0,s0
 340:lcd.c         ****     LCD_Address_Set(x,y,x+size-1,y+size-1); // Set a region of Chinese characters
 1804              		.loc 1 340 5
 1805 0036 97000000 		call	LCD_Address_Set
 1805      E7800000 
 1806              	.LVL171:
 1807              		.loc 1 341 5 is_stmt 1
 342:lcd.c         **** 	temp+=index*size1;                      // Start of writing
 343:lcd.c         **** 	for(j=0;j<size1;j++)
 344:lcd.c         **** 	{
 345:lcd.c         **** 		for(i=0;i<8;i++)
 346:lcd.c         **** 		{
 347:lcd.c         **** 		 	if((*temp&(1<<i))!=0) {         // Read from the lower bit of the data
 348:lcd.c         **** 				LCD_WR_DATA(color);         // set dot color
 349:lcd.c         **** 			}
 350:lcd.c         **** 			else
 351:lcd.c         **** 			{
 352:lcd.c         **** 				LCD_WR_DATA(BACK_COLOR);    // set dot color to background
 1808              		.loc 1 352 5 is_stmt 0
 1809 003e 370A0000 		lui	s4,%hi(BACK_COLOR)
 345:lcd.c         **** 		{
 1810              		.loc 1 345 3
 1811 0042 A14A     		li	s5,8
 341:lcd.c         ****     size1=size*size/8;                      // The bytes occupied by a Chinese character
 1812              		.loc 1 341 20
 1813 0044 0D84     		srai	s0,s0,3
 1814              	.LVL172:
 342:lcd.c         **** 	temp+=index*size1;                      // Start of writing
 1815              		.loc 1 342 2 is_stmt 1
 342:lcd.c         **** 	temp+=index*size1;                      // Start of writing
 1816              		.loc 1 342 13 is_stmt 0
 1817 0046 1374F40F 		andi	s0,s0,255
 1818              	.LVL173:
 1819 004a B3093403 		mul	s3,s0,s3
 342:lcd.c         **** 	temp+=index*size1;                      // Start of writing
 1820              		.loc 1 342 6
 1821 004e CE94     		add	s1,s1,s3
 1822              	.LVL174:
 343:lcd.c         **** 	{
 1823              		.loc 1 343 2 is_stmt 1
 1824 0050 2694     		add	s0,s1,s0
 1825              	.L57:
 343:lcd.c         **** 	{
 1826              		.loc 1 343 2 is_stmt 0 discriminator 1
 1827 0052 63908402 		bne	s1,s0,.L62
 353:lcd.c         **** 			}
 354:lcd.c         **** 		}
 355:lcd.c         **** 		temp++;
GAS LISTING C:\Users\nesre\AppData\Local\Temp\ccPTohGt.s 			page 44


 356:lcd.c         **** 	 }
 357:lcd.c         **** }
 1828              		.loc 1 357 1
 1829 0056 F240     		lw	ra,28(sp)
 1830              		.cfi_remember_state
 1831              		.cfi_restore 1
 1832 0058 6244     		lw	s0,24(sp)
 1833              		.cfi_restore 8
 1834 005a D244     		lw	s1,20(sp)
 1835              		.cfi_restore 9
 1836              	.LVL175:
 1837 005c 4249     		lw	s2,16(sp)
 1838              		.cfi_restore 18
 1839              	.LVL176:
 1840 005e B249     		lw	s3,12(sp)
 1841              		.cfi_restore 19
 1842 0060 224A     		lw	s4,8(sp)
 1843              		.cfi_restore 20
 1844 0062 924A     		lw	s5,4(sp)
 1845              		.cfi_restore 21
 1846 0064 0561     		addi	sp,sp,32
 1847              	.LCFI25:
 1848              		.cfi_def_cfa_offset 0
 1849 0066 8280     		jr	ra
 1850              	.LVL177:
 1851              	.L61:
 1852              	.LCFI26:
 1853              		.cfi_restore_state
 1854 0068 B7040000 		lui	s1,%hi(.LANCHOR4)
 1855 006c 93840400 		addi	s1,s1,%lo(.LANCHOR4)
 1856 0070 5DBF     		j	.L56
 1857              	.LVL178:
 1858              	.L62:
 1859 0072 8149     		li	s3,0
 1860              	.L60:
 1861              	.LVL179:
 347:lcd.c         **** 				LCD_WR_DATA(color);         // set dot color
 1862              		.loc 1 347 5 is_stmt 1
 347:lcd.c         **** 				LCD_WR_DATA(color);         // set dot color
 1863              		.loc 1 347 9 is_stmt 0
 1864 0074 83C70400 		lbu	a5,0(s1)
 348:lcd.c         **** 			}
 1865              		.loc 1 348 5
 1866 0078 4A85     		mv	a0,s2
 347:lcd.c         **** 				LCD_WR_DATA(color);         // set dot color
 1867              		.loc 1 347 22
 1868 007a B3D73741 		sra	a5,a5,s3
 1869 007e 858B     		andi	a5,a5,1
 347:lcd.c         **** 				LCD_WR_DATA(color);         // set dot color
 1870              		.loc 1 347 7
 1871 0080 99E3     		bne	a5,zero,.L65
 1872              	.LVL180:
 352:lcd.c         **** 			}
 1873              		.loc 1 352 5 is_stmt 1
 1874 0082 03250A00 		lw	a0,%lo(BACK_COLOR)(s4)
 1875              	.LVL181:
 1876              	.L65:
GAS LISTING C:\Users\nesre\AppData\Local\Temp\ccPTohGt.s 			page 45


 1877 0086 8509     		addi	s3,s3,1
 1878              	.LVL182:
 1879 0088 97000000 		call	LCD_WR_DATA
 1879      E7800000 
 1880              	.LVL183:
 345:lcd.c         **** 		{
 1881              		.loc 1 345 3 is_stmt 0
 1882 0090 E39259FF 		bne	s3,s5,.L60
 355:lcd.c         **** 	 }
 1883              		.loc 1 355 3 is_stmt 1 discriminator 2
 355:lcd.c         **** 	 }
 1884              		.loc 1 355 7 is_stmt 0 discriminator 2
 1885 0094 8504     		addi	s1,s1,1
 1886              	.LVL184:
 1887 0096 75BF     		j	.L57
 1888              		.cfi_endproc
 1889              	.LFE15:
 1891              		.section	.text.LCD_DrawPoint,"ax",@progbits
 1892              		.align	1
 1893              		.globl	LCD_DrawPoint
 1895              	LCD_DrawPoint:
 1896              	.LFB16:
 358:lcd.c         **** 
 359:lcd.c         **** 
 360:lcd.c         **** /*
 361:lcd.c         ****   Function description: LCD display Chinese characters
 362:lcd.c         ****   Entry data: x, y: start coordinates
 363:lcd.c         ****   Return value: None
 364:lcd.c         **** */
 365:lcd.c         **** void LCD_DrawPoint(u16 x,u16 y,u16 color)
 366:lcd.c         **** {
 1897              		.loc 1 366 1 is_stmt 1
 1898              		.cfi_startproc
 1899              	.LVL185:
 367:lcd.c         **** 	LCD_Address_Set(x,y,x,y); // Set cursor position
 1900              		.loc 1 367 2
 366:lcd.c         **** 	LCD_Address_Set(x,y,x,y); // Set cursor position
 1901              		.loc 1 366 1 is_stmt 0
 1902 0000 4111     		addi	sp,sp,-16
 1903              	.LCFI27:
 1904              		.cfi_def_cfa_offset 16
 1905 0002 22C4     		sw	s0,8(sp)
 1906              		.loc 1 367 2
 1907 0004 AE86     		mv	a3,a1
 1908              		.cfi_offset 8, -8
 366:lcd.c         **** 	LCD_Address_Set(x,y,x,y); // Set cursor position
 1909              		.loc 1 366 1
 1910 0006 3284     		mv	s0,a2
 1911              		.loc 1 367 2
 1912 0008 2A86     		mv	a2,a0
 1913              	.LVL186:
 366:lcd.c         **** 	LCD_Address_Set(x,y,x,y); // Set cursor position
 1914              		.loc 1 366 1
 1915 000a 06C6     		sw	ra,12(sp)
 1916              		.cfi_offset 1, -4
 1917              		.loc 1 367 2
 1918 000c 97000000 		call	LCD_Address_Set
GAS LISTING C:\Users\nesre\AppData\Local\Temp\ccPTohGt.s 			page 46


 1918      E7800000 
 1919              	.LVL187:
 368:lcd.c         **** 	LCD_WR_DATA(color);
 1920              		.loc 1 368 2 is_stmt 1
 1921 0014 2285     		mv	a0,s0
 369:lcd.c         **** } 
 1922              		.loc 1 369 1 is_stmt 0
 1923 0016 2244     		lw	s0,8(sp)
 1924              		.cfi_restore 8
 1925              	.LVL188:
 1926 0018 B240     		lw	ra,12(sp)
 1927              		.cfi_restore 1
 1928 001a 4101     		addi	sp,sp,16
 1929              	.LCFI28:
 1930              		.cfi_def_cfa_offset 0
 368:lcd.c         **** 	LCD_WR_DATA(color);
 1931              		.loc 1 368 2
 1932 001c 17030000 		tail	LCD_WR_DATA
 1932      67000300 
 1933              	.LVL189:
 1934              		.cfi_endproc
 1935              	.LFE16:
 1937              		.section	.text.LCD_Fill,"ax",@progbits
 1938              		.align	1
 1939              		.globl	LCD_Fill
 1941              	LCD_Fill:
 1942              	.LFB18:
 370:lcd.c         **** 
 371:lcd.c         **** 
 372:lcd.c         **** /*
 373:lcd.c         ****   Function description: LCD draws a large dot
 374:lcd.c         ****   Entry data: x, y: start coordinates
 375:lcd.c         ****   Return value: None
 376:lcd.c         **** */
 377:lcd.c         **** void LCD_DrawPoint_big(u16 x,u16 y,u16 color)
 378:lcd.c         **** {
 379:lcd.c         **** 	LCD_Fill(x-1,y-1,x+1,y+1,color);
 380:lcd.c         **** } 
 381:lcd.c         **** 
 382:lcd.c         **** 
 383:lcd.c         **** /*
 384:lcd.c         ****   Function description: fill color in the specified area
 385:lcd.c         ****   Entry data: xsta, ysta:  start coordinates
 386:lcd.c         ****               xend, yend:  end coordinates
 387:lcd.c         ****   Return value: None
 388:lcd.c         **** */
 389:lcd.c         **** void LCD_Fill(u16 xsta,u16 ysta,u16 xend,u16 yend,u16 color)
 390:lcd.c         **** {          
 1943              		.loc 1 390 1 is_stmt 1
 1944              		.cfi_startproc
 1945              	.LVL190:
 391:lcd.c         **** 	u16 i,j; 
 1946              		.loc 1 391 2
 392:lcd.c         **** 	LCD_Address_Set(xsta,ysta,xend,yend);          //Set cursor position
 1947              		.loc 1 392 2
 390:lcd.c         **** 	u16 i,j; 
 1948              		.loc 1 390 1 is_stmt 0
GAS LISTING C:\Users\nesre\AppData\Local\Temp\ccPTohGt.s 			page 47


 1949 0000 0111     		addi	sp,sp,-32
 1950              	.LCFI29:
 1951              		.cfi_def_cfa_offset 32
 1952 0002 22CC     		sw	s0,24(sp)
 1953 0004 4AC8     		sw	s2,16(sp)
 1954 0006 4EC6     		sw	s3,12(sp)
 1955 0008 52C4     		sw	s4,8(sp)
 1956 000a 56C2     		sw	s5,4(sp)
 1957 000c 06CE     		sw	ra,28(sp)
 1958 000e 26CA     		sw	s1,20(sp)
 1959              		.cfi_offset 8, -8
 1960              		.cfi_offset 18, -16
 1961              		.cfi_offset 19, -20
 1962              		.cfi_offset 20, -24
 1963              		.cfi_offset 21, -28
 1964              		.cfi_offset 1, -4
 1965              		.cfi_offset 9, -12
 390:lcd.c         **** 	u16 i,j; 
 1966              		.loc 1 390 1
 1967 0010 AA89     		mv	s3,a0
 1968 0012 2E84     		mv	s0,a1
 1969 0014 328A     		mv	s4,a2
 1970 0016 3689     		mv	s2,a3
 1971 0018 BA8A     		mv	s5,a4
 1972              		.loc 1 392 2
 1973 001a 97000000 		call	LCD_Address_Set
 1973      E7800000 
 1974              	.LVL191:
 393:lcd.c         **** 	for(i=ysta;i<=yend;i++)
 1975              		.loc 1 393 2 is_stmt 1
 1976              	.L69:
 1977              		.loc 1 393 2 is_stmt 0 discriminator 1
 1978 0022 63758902 		bleu	s0,s2,.L72
 394:lcd.c         **** 	{													   	 	
 395:lcd.c         **** 		for(j=xsta;j<=xend;j++)LCD_WR_DATA(color); //Set cursor position
 396:lcd.c         **** 	} 					  	    
 397:lcd.c         **** }
 1979              		.loc 1 397 1
 1980 0026 F240     		lw	ra,28(sp)
 1981              		.cfi_remember_state
 1982              		.cfi_restore 1
 1983 0028 6244     		lw	s0,24(sp)
 1984              		.cfi_restore 8
 1985              	.LVL192:
 1986 002a D244     		lw	s1,20(sp)
 1987              		.cfi_restore 9
 1988 002c 4249     		lw	s2,16(sp)
 1989              		.cfi_restore 18
 1990              	.LVL193:
 1991 002e B249     		lw	s3,12(sp)
 1992              		.cfi_restore 19
 1993              	.LVL194:
 1994 0030 224A     		lw	s4,8(sp)
 1995              		.cfi_restore 20
 1996              	.LVL195:
 1997 0032 924A     		lw	s5,4(sp)
 1998              		.cfi_restore 21
GAS LISTING C:\Users\nesre\AppData\Local\Temp\ccPTohGt.s 			page 48


 1999              	.LVL196:
 2000 0034 0561     		addi	sp,sp,32
 2001              	.LCFI30:
 2002              		.cfi_def_cfa_offset 0
 2003 0036 8280     		jr	ra
 2004              	.LVL197:
 2005              	.L70:
 2006              	.LCFI31:
 2007              		.cfi_restore_state
 395:lcd.c         **** 	} 					  	    
 2008              		.loc 1 395 26 is_stmt 1 discriminator 3
 2009 0038 5685     		mv	a0,s5
 2010 003a 97000000 		call	LCD_WR_DATA
 2010      E7800000 
 2011              	.LVL198:
 395:lcd.c         **** 	} 					  	    
 2012              		.loc 1 395 23 is_stmt 0 discriminator 3
 2013 0042 8504     		addi	s1,s1,1
 2014              	.LVL199:
 2015              	.L71:
 395:lcd.c         **** 	} 					  	    
 2016              		.loc 1 395 3 discriminator 1
 2017 0044 E37A9AFE 		bleu	s1,s4,.L70
 393:lcd.c         **** 	for(i=ysta;i<=yend;i++)
 2018              		.loc 1 393 22 discriminator 2
 2019 0048 0504     		addi	s0,s0,1
 2020              	.LVL200:
 2021 004a E1BF     		j	.L69
 2022              	.LVL201:
 2023              	.L72:
 395:lcd.c         **** 	} 					  	    
 2024              		.loc 1 395 8
 2025 004c CE84     		mv	s1,s3
 2026 004e DDBF     		j	.L71
 2027              		.cfi_endproc
 2028              	.LFE18:
 2030              		.section	.text.LCD_DrawPoint_big,"ax",@progbits
 2031              		.align	1
 2032              		.globl	LCD_DrawPoint_big
 2034              	LCD_DrawPoint_big:
 2035              	.LFB17:
 378:lcd.c         **** 	LCD_Fill(x-1,y-1,x+1,y+1,color);
 2036              		.loc 1 378 1 is_stmt 1
 2037              		.cfi_startproc
 2038              	.LVL202:
 379:lcd.c         **** } 
 2039              		.loc 1 379 2
 2040 0000 3287     		mv	a4,a2
 2041 0002 93861500 		addi	a3,a1,1
 2042 0006 13061500 		addi	a2,a0,1
 2043              	.LVL203:
 2044 000a FD15     		addi	a1,a1,-1
 2045              	.LVL204:
 2046 000c 7D15     		addi	a0,a0,-1
 2047              	.LVL205:
 2048 000e 17030000 		tail	LCD_Fill
 2048      67000300 
GAS LISTING C:\Users\nesre\AppData\Local\Temp\ccPTohGt.s 			page 49


 2049              	.LVL206:
 2050              		.cfi_endproc
 2051              	.LFE17:
 2053              		.section	.text.LCD_DrawLine,"ax",@progbits
 2054              		.align	1
 2055              		.globl	LCD_DrawLine
 2057              	LCD_DrawLine:
 2058              	.LFB19:
 398:lcd.c         **** 
 399:lcd.c         **** 
 400:lcd.c         **** /*
 401:lcd.c         ****   Function description: draw a line
 402:lcd.c         ****   Entry data: x1, y1:  start coordinates
 403:lcd.c         ****               x2, y2:  end coordinates
 404:lcd.c         ****   Return value: None
 405:lcd.c         **** ******************************************************************************/
 406:lcd.c         **** void LCD_DrawLine(u16 x1,u16 y1,u16 x2,u16 y2,u16 color)
 407:lcd.c         **** {
 2059              		.loc 1 407 1
 2060              		.cfi_startproc
 2061              	.LVL207:
 408:lcd.c         **** 	u16 t; 
 2062              		.loc 1 408 2
 409:lcd.c         **** 	int xerr=0,yerr=0,delta_x,delta_y,distance;
 2063              		.loc 1 409 2
 410:lcd.c         **** 	int incx,incy,uRow,uCol;
 2064              		.loc 1 410 2
 411:lcd.c         **** 	delta_x=x2-x1;                       // Calculate coordinate increments
 2065              		.loc 1 411 2
 407:lcd.c         **** 	u16 t; 
 2066              		.loc 1 407 1 is_stmt 0
 2067 0000 3971     		addi	sp,sp,-64
 2068              	.LCFI32:
 2069              		.cfi_def_cfa_offset 64
 2070 0002 22DC     		sw	s0,56(sp)
 2071 0004 26DA     		sw	s1,52(sp)
 2072 0006 4AD8     		sw	s2,48(sp)
 2073 0008 4ED6     		sw	s3,44(sp)
 2074 000a 62CC     		sw	s8,24(sp)
 2075 000c 06DE     		sw	ra,60(sp)
 2076 000e 52D4     		sw	s4,40(sp)
 2077 0010 56D2     		sw	s5,36(sp)
 2078 0012 5AD0     		sw	s6,32(sp)
 2079 0014 5ECE     		sw	s7,28(sp)
 2080 0016 66CA     		sw	s9,20(sp)
 2081 0018 6AC8     		sw	s10,16(sp)
 2082              		.cfi_offset 8, -8
 2083              		.cfi_offset 9, -12
 2084              		.cfi_offset 18, -16
 2085              		.cfi_offset 19, -20
 2086              		.cfi_offset 24, -40
 2087              		.cfi_offset 1, -4
 2088              		.cfi_offset 20, -24
 2089              		.cfi_offset 21, -28
 2090              		.cfi_offset 22, -32
 2091              		.cfi_offset 23, -36
 2092              		.cfi_offset 25, -44
GAS LISTING C:\Users\nesre\AppData\Local\Temp\ccPTohGt.s 			page 50


 2093              		.cfi_offset 26, -48
 2094              		.loc 1 411 12
 2095 001a 3304A640 		sub	s0,a2,a0
 2096              	.LVL208:
 412:lcd.c         **** 	delta_y=y2-y1;
 2097              		.loc 1 412 2 is_stmt 1
 2098              		.loc 1 412 12 is_stmt 0
 2099 001e B384B640 		sub	s1,a3,a1
 2100              	.LVL209:
 413:lcd.c         **** 	uRow=x1;                             // Coordinates of starting point of drawing
 2101              		.loc 1 413 2 is_stmt 1
 2102              		.loc 1 413 6 is_stmt 0
 2103 0022 2A89     		mv	s2,a0
 2104              	.LVL210:
 414:lcd.c         **** 	uCol=y1;
 2105              		.loc 1 414 2 is_stmt 1
 2106              		.loc 1 414 6 is_stmt 0
 2107 0024 AE89     		mv	s3,a1
 2108              	.LVL211:
 415:lcd.c         **** 	if(delta_x>0)incx=1;                 // Set single step direction
 2109              		.loc 1 415 2 is_stmt 1
 2110              		.loc 1 415 19 is_stmt 0
 2111 0026 054C     		li	s8,1
 2112              		.loc 1 415 4
 2113 0028 63478000 		bgt	s0,zero,.L76
 416:lcd.c         **** 	else if (delta_x==0)incx=0;          // Vertical line
 2114              		.loc 1 416 7 is_stmt 1
 2115              		.loc 1 416 26 is_stmt 0
 2116 002c 014C     		li	s8,0
 2117              		.loc 1 416 10
 2118 002e 01C4     		beq	s0,zero,.L76
 417:lcd.c         **** 	else {incx=-1;delta_x=-delta_x;}
 2119              		.loc 1 417 8 is_stmt 1
 2120              	.LVL212:
 2121              		.loc 1 417 16
 2122              		.loc 1 417 23 is_stmt 0
 2123 0030 33048040 		neg	s0,s0
 2124              	.LVL213:
 2125              		.loc 1 417 12
 2126 0034 7D5C     		li	s8,-1
 2127              	.LVL214:
 2128              	.L76:
 418:lcd.c         **** 	if(delta_y>0)incy=1;
 2129              		.loc 1 418 2 is_stmt 1
 2130              		.loc 1 418 19 is_stmt 0
 2131 0036 854C     		li	s9,1
 2132              		.loc 1 418 4
 2133 0038 63479000 		bgt	s1,zero,.L77
 419:lcd.c         **** 	else if (delta_y==0)incy=0;          // Horizontal line
 2134              		.loc 1 419 7 is_stmt 1
 2135              		.loc 1 419 26 is_stmt 0
 2136 003c 814C     		li	s9,0
 2137              		.loc 1 419 10
 2138 003e 81C4     		beq	s1,zero,.L77
 420:lcd.c         **** 	else {incy=-1;delta_y=-delta_y;}
 2139              		.loc 1 420 8 is_stmt 1
 2140              	.LVL215:
GAS LISTING C:\Users\nesre\AppData\Local\Temp\ccPTohGt.s 			page 51


 2141              		.loc 1 420 16
 2142              		.loc 1 420 23 is_stmt 0
 2143 0040 B3049040 		neg	s1,s1
 2144              	.LVL216:
 2145              		.loc 1 420 12
 2146 0044 FD5C     		li	s9,-1
 2147              	.LVL217:
 2148              	.L77:
 421:lcd.c         **** 	if(delta_x>delta_y)distance=delta_x; // Pick basic incremental axis
 2149              		.loc 1 421 2 is_stmt 1
 2150 0046 228A     		mv	s4,s0
 2151 0048 63539400 		bge	s0,s1,.L78
 2152 004c 268A     		mv	s4,s1
 2153              	.L78:
 2154              	.LVL218:
 422:lcd.c         **** 	else distance=delta_y;
 423:lcd.c         **** 	for(t=0;t<distance+1;t++)
 2155              		.loc 1 423 2
 409:lcd.c         **** 	int incx,incy,uRow,uCol;
 2156              		.loc 1 409 13 is_stmt 0
 2157 004e 014B     		li	s6,0
 409:lcd.c         **** 	int incx,incy,uRow,uCol;
 2158              		.loc 1 409 6
 2159 0050 814A     		li	s5,0
 2160              		.loc 1 423 7
 2161 0052 814B     		li	s7,0
 2162              		.loc 1 423 20
 2163 0054 130D1A00 		addi	s10,s4,1
 2164              	.LVL219:
 2165              	.L81:
 424:lcd.c         **** 	{
 425:lcd.c         **** 		LCD_DrawPoint(uRow,uCol,color);  // Dot
 2166              		.loc 1 425 3 is_stmt 1
 2167 0058 3A86     		mv	a2,a4
 2168 005a CE85     		mv	a1,s3
 2169 005c 4A85     		mv	a0,s2
 2170 005e 3AC6     		sw	a4,12(sp)
 426:lcd.c         **** 		xerr+=delta_x;
 2171              		.loc 1 426 7 is_stmt 0
 2172 0060 A29A     		add	s5,s5,s0
 2173              	.LVL220:
 425:lcd.c         **** 		xerr+=delta_x;
 2174              		.loc 1 425 3
 2175 0062 97000000 		call	LCD_DrawPoint
 2175      E7800000 
 2176              	.LVL221:
 2177              		.loc 1 426 3 is_stmt 1
 427:lcd.c         **** 		yerr+=delta_y;
 2178              		.loc 1 427 3
 2179              		.loc 1 427 7 is_stmt 0
 2180 006a 269B     		add	s6,s6,s1
 2181              	.LVL222:
 428:lcd.c         **** 		if(xerr>distance)
 2182              		.loc 1 428 3 is_stmt 1
 2183              		.loc 1 428 5 is_stmt 0
 2184 006c 3247     		lw	a4,12(sp)
 2185 006e 63555A01 		ble	s5,s4,.L79
GAS LISTING C:\Users\nesre\AppData\Local\Temp\ccPTohGt.s 			page 52


 429:lcd.c         **** 		{
 430:lcd.c         **** 			xerr-=distance;
 2186              		.loc 1 430 4 is_stmt 1
 2187              		.loc 1 430 8 is_stmt 0
 2188 0072 B38A4A41 		sub	s5,s5,s4
 2189              	.LVL223:
 431:lcd.c         **** 			uRow+=incx;
 2190              		.loc 1 431 4 is_stmt 1
 2191              		.loc 1 431 8 is_stmt 0
 2192 0076 6299     		add	s2,s2,s8
 2193              	.LVL224:
 2194              	.L79:
 432:lcd.c         **** 		}
 433:lcd.c         **** 		if(yerr>distance)
 2195              		.loc 1 433 3 is_stmt 1
 2196              		.loc 1 433 5 is_stmt 0
 2197 0078 63556A01 		ble	s6,s4,.L80
 434:lcd.c         **** 		{
 435:lcd.c         **** 			yerr-=distance;
 2198              		.loc 1 435 4 is_stmt 1
 2199              		.loc 1 435 8 is_stmt 0
 2200 007c 330B4B41 		sub	s6,s6,s4
 2201              	.LVL225:
 436:lcd.c         **** 			uCol+=incy;
 2202              		.loc 1 436 4 is_stmt 1
 2203              		.loc 1 436 8 is_stmt 0
 2204 0080 E699     		add	s3,s3,s9
 2205              	.LVL226:
 2206              	.L80:
 423:lcd.c         **** 	{
 2207              		.loc 1 423 24 discriminator 2
 2208 0082 850B     		addi	s7,s7,1
 2209              	.LVL227:
 423:lcd.c         **** 	{
 2210              		.loc 1 423 2 discriminator 2
 2211 0084 E3EAABFD 		bgtu	s10,s7,.L81
 437:lcd.c         **** 		}
 438:lcd.c         **** 	}
 439:lcd.c         **** }
 2212              		.loc 1 439 1
 2213 0088 F250     		lw	ra,60(sp)
 2214              		.cfi_restore 1
 2215 008a 6254     		lw	s0,56(sp)
 2216              		.cfi_restore 8
 2217              	.LVL228:
 2218 008c D254     		lw	s1,52(sp)
 2219              		.cfi_restore 9
 2220              	.LVL229:
 2221 008e 4259     		lw	s2,48(sp)
 2222              		.cfi_restore 18
 2223              	.LVL230:
 2224 0090 B259     		lw	s3,44(sp)
 2225              		.cfi_restore 19
 2226              	.LVL231:
 2227 0092 225A     		lw	s4,40(sp)
 2228              		.cfi_restore 20
 2229              	.LVL232:
GAS LISTING C:\Users\nesre\AppData\Local\Temp\ccPTohGt.s 			page 53


 2230 0094 925A     		lw	s5,36(sp)
 2231              		.cfi_restore 21
 2232              	.LVL233:
 2233 0096 025B     		lw	s6,32(sp)
 2234              		.cfi_restore 22
 2235              	.LVL234:
 2236 0098 F24B     		lw	s7,28(sp)
 2237              		.cfi_restore 23
 2238              	.LVL235:
 2239 009a 624C     		lw	s8,24(sp)
 2240              		.cfi_restore 24
 2241              	.LVL236:
 2242 009c D24C     		lw	s9,20(sp)
 2243              		.cfi_restore 25
 2244              	.LVL237:
 2245 009e 424D     		lw	s10,16(sp)
 2246              		.cfi_restore 26
 2247              	.LVL238:
 2248 00a0 2161     		addi	sp,sp,64
 2249              	.LCFI33:
 2250              		.cfi_def_cfa_offset 0
 2251 00a2 8280     		jr	ra
 2252              		.cfi_endproc
 2253              	.LFE19:
 2255              		.section	.text.LCD_DrawRectangle,"ax",@progbits
 2256              		.align	1
 2257              		.globl	LCD_DrawRectangle
 2259              	LCD_DrawRectangle:
 2260              	.LFB20:
 440:lcd.c         **** 
 441:lcd.c         **** 
 442:lcd.c         **** /*
 443:lcd.c         ****   Function description: draw a rectangle
 444:lcd.c         ****   Entry data: x1, y1:  start coordinates
 445:lcd.c         ****               x2, y2:  end coordinates
 446:lcd.c         ****   Return value: None
 447:lcd.c         **** */
 448:lcd.c         **** void LCD_DrawRectangle(u16 x1, u16 y1, u16 x2, u16 y2,u16 color)
 449:lcd.c         **** {
 2261              		.loc 1 449 1 is_stmt 1
 2262              		.cfi_startproc
 2263              	.LVL239:
 450:lcd.c         **** 	LCD_DrawLine(x1,y1,x2,y1,color);
 2264              		.loc 1 450 2
 449:lcd.c         **** 	LCD_DrawLine(x1,y1,x2,y1,color);
 2265              		.loc 1 449 1 is_stmt 0
 2266 0000 0111     		addi	sp,sp,-32
 2267              	.LCFI34:
 2268              		.cfi_def_cfa_offset 32
 2269 0002 22CC     		sw	s0,24(sp)
 2270              		.cfi_offset 8, -8
 2271 0004 3684     		mv	s0,a3
 2272              		.loc 1 450 2
 2273 0006 AE86     		mv	a3,a1
 2274              	.LVL240:
 449:lcd.c         **** 	LCD_DrawLine(x1,y1,x2,y1,color);
 2275              		.loc 1 449 1
GAS LISTING C:\Users\nesre\AppData\Local\Temp\ccPTohGt.s 			page 54


 2276 0008 06CE     		sw	ra,28(sp)
 2277 000a 26CA     		sw	s1,20(sp)
 2278 000c 4AC8     		sw	s2,16(sp)
 2279 000e 4EC6     		sw	s3,12(sp)
 2280 0010 52C4     		sw	s4,8(sp)
 2281              		.cfi_offset 1, -4
 2282              		.cfi_offset 9, -12
 2283              		.cfi_offset 18, -16
 2284              		.cfi_offset 19, -20
 2285              		.cfi_offset 20, -24
 449:lcd.c         **** 	LCD_DrawLine(x1,y1,x2,y1,color);
 2286              		.loc 1 449 1
 2287 0012 AA89     		mv	s3,a0
 2288 0014 328A     		mv	s4,a2
 2289 0016 3A89     		mv	s2,a4
 2290 0018 AE84     		mv	s1,a1
 2291              		.loc 1 450 2
 2292 001a 97000000 		call	LCD_DrawLine
 2292      E7800000 
 2293              	.LVL241:
 451:lcd.c         **** 	LCD_DrawLine(x1,y1,x1,y2,color);
 2294              		.loc 1 451 2 is_stmt 1
 2295 0022 4A87     		mv	a4,s2
 2296 0024 A286     		mv	a3,s0
 2297 0026 4E86     		mv	a2,s3
 2298 0028 A685     		mv	a1,s1
 2299 002a 4E85     		mv	a0,s3
 2300 002c 97000000 		call	LCD_DrawLine
 2300      E7800000 
 2301              	.LVL242:
 452:lcd.c         **** 	LCD_DrawLine(x1,y2,x2,y2,color);
 2302              		.loc 1 452 2
 2303 0034 4A87     		mv	a4,s2
 2304 0036 A286     		mv	a3,s0
 2305 0038 5286     		mv	a2,s4
 2306 003a A285     		mv	a1,s0
 2307 003c 4E85     		mv	a0,s3
 2308 003e 97000000 		call	LCD_DrawLine
 2308      E7800000 
 2309              	.LVL243:
 453:lcd.c         **** 	LCD_DrawLine(x2,y1,x2,y2,color);
 2310              		.loc 1 453 2
 2311 0046 A286     		mv	a3,s0
 454:lcd.c         **** }
 2312              		.loc 1 454 1 is_stmt 0
 2313 0048 6244     		lw	s0,24(sp)
 2314              		.cfi_restore 8
 2315              	.LVL244:
 2316 004a F240     		lw	ra,28(sp)
 2317              		.cfi_restore 1
 2318 004c B249     		lw	s3,12(sp)
 2319              		.cfi_restore 19
 2320              	.LVL245:
 453:lcd.c         **** 	LCD_DrawLine(x2,y1,x2,y2,color);
 2321              		.loc 1 453 2
 2322 004e 4A87     		mv	a4,s2
 2323 0050 5286     		mv	a2,s4
GAS LISTING C:\Users\nesre\AppData\Local\Temp\ccPTohGt.s 			page 55


 2324              		.loc 1 454 1
 2325 0052 4249     		lw	s2,16(sp)
 2326              		.cfi_restore 18
 2327              	.LVL246:
 453:lcd.c         **** 	LCD_DrawLine(x2,y1,x2,y2,color);
 2328              		.loc 1 453 2
 2329 0054 A685     		mv	a1,s1
 2330 0056 5285     		mv	a0,s4
 2331              		.loc 1 454 1
 2332 0058 D244     		lw	s1,20(sp)
 2333              		.cfi_restore 9
 2334              	.LVL247:
 2335 005a 224A     		lw	s4,8(sp)
 2336              		.cfi_restore 20
 2337              	.LVL248:
 2338 005c 0561     		addi	sp,sp,32
 2339              	.LCFI35:
 2340              		.cfi_def_cfa_offset 0
 453:lcd.c         **** 	LCD_DrawLine(x2,y1,x2,y2,color);
 2341              		.loc 1 453 2
 2342 005e 17030000 		tail	LCD_DrawLine
 2342      67000300 
 2343              	.LVL249:
 2344              		.cfi_endproc
 2345              	.LFE20:
 2347              		.section	.text.Draw_Circle,"ax",@progbits
 2348              		.align	1
 2349              		.globl	Draw_Circle
 2351              	Draw_Circle:
 2352              	.LFB21:
 455:lcd.c         **** 
 456:lcd.c         **** 
 457:lcd.c         **** /*
 458:lcd.c         ****   Function description: draw circle
 459:lcd.c         ****   Entry data: x0, y0:  center coordinates
 460:lcd.c         ****                    r:  radius
 461:lcd.c         ****   Return value: None
 462:lcd.c         **** */
 463:lcd.c         **** void Draw_Circle(u16 x0,u16 y0,u8 r,u16 color)
 464:lcd.c         **** {
 2353              		.loc 1 464 1 is_stmt 1
 2354              		.cfi_startproc
 2355              	.LVL250:
 465:lcd.c         **** 	int a,b;
 2356              		.loc 1 465 2
 466:lcd.c         **** 	// int di;
 467:lcd.c         **** 	a=0;b=r;	  
 2357              		.loc 1 467 2
 2358              		.loc 1 467 6
 468:lcd.c         **** 	while(a<=b)
 469:lcd.c         **** 	{
 470:lcd.c         **** 		LCD_DrawPoint(x0-b,y0-a,color);  //3           
 471:lcd.c         **** 		LCD_DrawPoint(x0+b,y0-a,color);  //0           
 472:lcd.c         **** 		LCD_DrawPoint(x0-a,y0+b,color);  //1                
 473:lcd.c         **** 		LCD_DrawPoint(x0-a,y0-b,color);  //2             
 474:lcd.c         **** 		LCD_DrawPoint(x0+b,y0+a,color);  //4               
 475:lcd.c         **** 		LCD_DrawPoint(x0+a,y0-b,color);  //5
GAS LISTING C:\Users\nesre\AppData\Local\Temp\ccPTohGt.s 			page 56


 476:lcd.c         **** 		LCD_DrawPoint(x0+a,y0+b,color);             //6 
 477:lcd.c         **** 		LCD_DrawPoint(x0-b,y0+a,color);             //7
 478:lcd.c         **** 		a++;
 479:lcd.c         **** 		if((a*a+b*b)>(r*r)) // Determine whether the points to be drawn are too far away
 2359              		.loc 1 479 18 is_stmt 0
 2360 0000 3307C602 		mul	a4,a2,a2
 464:lcd.c         **** 	int a,b;
 2361              		.loc 1 464 1
 2362 0004 5D71     		addi	sp,sp,-80
 2363              	.LCFI36:
 2364              		.cfi_def_cfa_offset 80
 2365 0006 A2C4     		sw	s0,72(sp)
 2366 0008 A6C2     		sw	s1,68(sp)
 2367 000a CAC0     		sw	s2,64(sp)
 2368 000c 5ED6     		sw	s7,44(sp)
 2369 000e 62D4     		sw	s8,40(sp)
 2370 0010 86C6     		sw	ra,76(sp)
 2371 0012 4EDE     		sw	s3,60(sp)
 2372 0014 52DC     		sw	s4,56(sp)
 2373 0016 56DA     		sw	s5,52(sp)
 2374 0018 5AD8     		sw	s6,48(sp)
 2375 001a 66D2     		sw	s9,36(sp)
 2376 001c 6AD0     		sw	s10,32(sp)
 2377 001e 6ECE     		sw	s11,28(sp)
 2378              		.cfi_offset 8, -8
 2379              		.cfi_offset 9, -12
 2380              		.cfi_offset 18, -16
 2381              		.cfi_offset 23, -36
 2382              		.cfi_offset 24, -40
 2383              		.cfi_offset 1, -4
 2384              		.cfi_offset 19, -20
 2385              		.cfi_offset 20, -24
 2386              		.cfi_offset 21, -28
 2387              		.cfi_offset 22, -32
 2388              		.cfi_offset 25, -44
 2389              		.cfi_offset 26, -48
 2390              		.cfi_offset 27, -52
 464:lcd.c         **** 	int a,b;
 2391              		.loc 1 464 1
 2392 0020 AA8B     		mv	s7,a0
 2393 0022 2E8C     		mv	s8,a1
 2394 0024 3689     		mv	s2,a3
 467:lcd.c         **** 	while(a<=b)
 2395              		.loc 1 467 7
 2396 0026 3284     		mv	s0,a2
 2397              	.LVL251:
 468:lcd.c         **** 	while(a<=b)
 2398              		.loc 1 468 2 is_stmt 1
 467:lcd.c         **** 	while(a<=b)
 2399              		.loc 1 467 3 is_stmt 0
 2400 0028 8144     		li	s1,0
 2401              	.LVL252:
 2402              	.L94:
 2403 002a B3099C40 		sub	s3,s8,s1
 470:lcd.c         **** 		LCD_DrawPoint(x0+b,y0-a,color);  //0           
 2404              		.loc 1 470 3
 2405 002e B38A8B40 		sub	s5,s7,s0
GAS LISTING C:\Users\nesre\AppData\Local\Temp\ccPTohGt.s 			page 57


 2406 0032 CE85     		mv	a1,s3
 2407 0034 4A86     		mv	a2,s2
 2408 0036 5685     		mv	a0,s5
 2409 0038 3AC6     		sw	a4,12(sp)
 2410              	.LVL253:
 470:lcd.c         **** 		LCD_DrawPoint(x0+b,y0-a,color);  //0           
 2411              		.loc 1 470 3 is_stmt 1
 471:lcd.c         **** 		LCD_DrawPoint(x0-a,y0+b,color);  //1                
 2412              		.loc 1 471 3 is_stmt 0
 2413 003a 330D7401 		add	s10,s0,s7
 470:lcd.c         **** 		LCD_DrawPoint(x0+b,y0-a,color);  //0           
 2414              		.loc 1 470 3
 2415 003e 97000000 		call	LCD_DrawPoint
 2415      E7800000 
 2416              	.LVL254:
 471:lcd.c         **** 		LCD_DrawPoint(x0-a,y0+b,color);  //1                
 2417              		.loc 1 471 3 is_stmt 1
 2418 0046 CE85     		mv	a1,s3
 2419 0048 4A86     		mv	a2,s2
 2420 004a 6A85     		mv	a0,s10
 2421 004c 97000000 		call	LCD_DrawPoint
 2421      E7800000 
 2422              	.LVL255:
 472:lcd.c         **** 		LCD_DrawPoint(x0-a,y0-b,color);  //2             
 2423              		.loc 1 472 3
 2424 0054 338A9B40 		sub	s4,s7,s1
 2425 0058 330B8401 		add	s6,s0,s8
 2426 005c 5285     		mv	a0,s4
 2427 005e 4A86     		mv	a2,s2
 2428 0060 DA85     		mv	a1,s6
 2429 0062 97000000 		call	LCD_DrawPoint
 2429      E7800000 
 2430              	.LVL256:
 473:lcd.c         **** 		LCD_DrawPoint(x0+b,y0+a,color);  //4               
 2431              		.loc 1 473 3
 2432 006a B30C8C40 		sub	s9,s8,s0
 2433 006e 5285     		mv	a0,s4
 2434 0070 939D1400 		slli	s11,s1,1
 2435 0074 4A86     		mv	a2,s2
 2436 0076 E685     		mv	a1,s9
 2437 0078 97000000 		call	LCD_DrawPoint
 2437      E7800000 
 2438              	.LVL257:
 474:lcd.c         **** 		LCD_DrawPoint(x0+a,y0-b,color);  //5
 2439              		.loc 1 474 3
 2440 0080 EE99     		add	s3,s3,s11
 2441 0082 4A86     		mv	a2,s2
 2442 0084 CE85     		mv	a1,s3
 2443 0086 6A85     		mv	a0,s10
 2444 0088 97000000 		call	LCD_DrawPoint
 2444      E7800000 
 2445              	.LVL258:
 475:lcd.c         **** 		LCD_DrawPoint(x0+a,y0+b,color);             //6 
 2446              		.loc 1 475 3
 2447 0090 6E9A     		add	s4,s4,s11
 2448 0092 4A86     		mv	a2,s2
 2449 0094 E685     		mv	a1,s9
GAS LISTING C:\Users\nesre\AppData\Local\Temp\ccPTohGt.s 			page 58


 2450 0096 5285     		mv	a0,s4
 2451 0098 97000000 		call	LCD_DrawPoint
 2451      E7800000 
 2452              	.LVL259:
 476:lcd.c         **** 		LCD_DrawPoint(x0-b,y0+a,color);             //7
 2453              		.loc 1 476 3
 2454 00a0 4A86     		mv	a2,s2
 2455 00a2 DA85     		mv	a1,s6
 2456 00a4 5285     		mv	a0,s4
 2457 00a6 97000000 		call	LCD_DrawPoint
 2457      E7800000 
 2458              	.LVL260:
 477:lcd.c         **** 		a++;
 2459              		.loc 1 477 3
 2460 00ae 4A86     		mv	a2,s2
 2461 00b0 CE85     		mv	a1,s3
 2462 00b2 5685     		mv	a0,s5
 2463 00b4 97000000 		call	LCD_DrawPoint
 2463      E7800000 
 2464              	.LVL261:
 478:lcd.c         **** 		if((a*a+b*b)>(r*r)) // Determine whether the points to be drawn are too far away
 2465              		.loc 1 478 3
 478:lcd.c         **** 		if((a*a+b*b)>(r*r)) // Determine whether the points to be drawn are too far away
 2466              		.loc 1 478 4 is_stmt 0
 2467 00bc 8504     		addi	s1,s1,1
 2468              	.LVL262:
 2469              		.loc 1 479 3 is_stmt 1
 2470              		.loc 1 479 8 is_stmt 0
 2471 00be B3879402 		mul	a5,s1,s1
 2472              		.loc 1 479 5
 2473 00c2 3247     		lw	a4,12(sp)
 2474              		.loc 1 479 12
 2475 00c4 B3068402 		mul	a3,s0,s0
 2476              		.loc 1 479 10
 2477 00c8 B697     		add	a5,a5,a3
 2478              		.loc 1 479 5
 2479 00ca 6353F700 		ble	a5,a4,.L93
 480:lcd.c         **** 		{
 481:lcd.c         **** 			b--;
 2480              		.loc 1 481 4 is_stmt 1
 2481              		.loc 1 481 5 is_stmt 0
 2482 00ce 7D14     		addi	s0,s0,-1
 2483              	.LVL263:
 2484              	.L93:
 468:lcd.c         **** 	{
 2485              		.loc 1 468 7
 2486 00d0 E35D94F4 		bge	s0,s1,.L94
 482:lcd.c         **** 		}
 483:lcd.c         **** 	}
 484:lcd.c         **** }
 2487              		.loc 1 484 1
 2488 00d4 B640     		lw	ra,76(sp)
 2489              		.cfi_restore 1
 2490 00d6 2644     		lw	s0,72(sp)
 2491              		.cfi_restore 8
 2492              	.LVL264:
 2493 00d8 9644     		lw	s1,68(sp)
GAS LISTING C:\Users\nesre\AppData\Local\Temp\ccPTohGt.s 			page 59


 2494              		.cfi_restore 9
 2495              	.LVL265:
 2496 00da 0649     		lw	s2,64(sp)
 2497              		.cfi_restore 18
 2498              	.LVL266:
 2499 00dc F259     		lw	s3,60(sp)
 2500              		.cfi_restore 19
 2501 00de 625A     		lw	s4,56(sp)
 2502              		.cfi_restore 20
 2503 00e0 D25A     		lw	s5,52(sp)
 2504              		.cfi_restore 21
 2505 00e2 425B     		lw	s6,48(sp)
 2506              		.cfi_restore 22
 2507 00e4 B25B     		lw	s7,44(sp)
 2508              		.cfi_restore 23
 2509              	.LVL267:
 2510 00e6 225C     		lw	s8,40(sp)
 2511              		.cfi_restore 24
 2512              	.LVL268:
 2513 00e8 925C     		lw	s9,36(sp)
 2514              		.cfi_restore 25
 2515 00ea 025D     		lw	s10,32(sp)
 2516              		.cfi_restore 26
 2517 00ec F24D     		lw	s11,28(sp)
 2518              		.cfi_restore 27
 2519 00ee 6161     		addi	sp,sp,80
 2520              	.LCFI37:
 2521              		.cfi_def_cfa_offset 0
 2522 00f0 8280     		jr	ra
 2523              		.cfi_endproc
 2524              	.LFE21:
 2526              		.section	.text.LCD_ShowChar,"ax",@progbits
 2527              		.align	1
 2528              		.globl	LCD_ShowChar
 2530              	LCD_ShowChar:
 2531              	.LFB22:
 485:lcd.c         **** 
 486:lcd.c         **** 
 487:lcd.c         **** /*
 488:lcd.c         ****   Function description: display characters
 489:lcd.c         ****   Entry data: x, y:  start point coordinates
 490:lcd.c         ****                num:  characters to display
 491:lcd.c         ****               mode:  1: transparent mode
 492:lcd.c         ****                      0: non-transparent mode
 493:lcd.c         ****   Return value: None
 494:lcd.c         **** */
 495:lcd.c         **** void LCD_ShowChar(u16 x,u16 y,u8 num,u8 mode,u16 color)
 496:lcd.c         **** {
 2532              		.loc 1 496 1 is_stmt 1
 2533              		.cfi_startproc
 2534              	.LVL269:
 497:lcd.c         ****     u8 temp;
 2535              		.loc 1 497 5
 498:lcd.c         ****     u8 pos,t;
 2536              		.loc 1 498 5
 499:lcd.c         **** 	  u16 x0=x;    
 2537              		.loc 1 499 4
GAS LISTING C:\Users\nesre\AppData\Local\Temp\ccPTohGt.s 			page 60


 500:lcd.c         ****     if(x>LCD_W-8 || y>LCD_H-16)return;	// Outside of display area
 2538              		.loc 1 500 5
 2539              		.loc 1 500 7 is_stmt 0
 2540 0000 93078009 		li	a5,152
 2541 0004 63ECA70C 		bgtu	a0,a5,.L116
 496:lcd.c         ****     u8 temp;
 2542              		.loc 1 496 1 discriminator 2
 2543 0008 7971     		addi	sp,sp,-48
 2544              	.LCFI38:
 2545              		.cfi_def_cfa_offset 48
 2546 000a 22D4     		sw	s0,40(sp)
 2547 000c 06D6     		sw	ra,44(sp)
 2548 000e 26D2     		sw	s1,36(sp)
 2549 0010 4AD0     		sw	s2,32(sp)
 2550 0012 4ECE     		sw	s3,28(sp)
 2551 0014 52CC     		sw	s4,24(sp)
 2552 0016 56CA     		sw	s5,20(sp)
 2553 0018 5AC8     		sw	s6,16(sp)
 2554 001a 5EC6     		sw	s7,12(sp)
 2555              		.cfi_offset 8, -8
 2556              		.cfi_offset 1, -4
 2557              		.cfi_offset 9, -12
 2558              		.cfi_offset 18, -16
 2559              		.cfi_offset 19, -20
 2560              		.cfi_offset 20, -24
 2561              		.cfi_offset 21, -28
 2562              		.cfi_offset 22, -32
 2563              		.cfi_offset 23, -36
 2564              		.loc 1 500 18 discriminator 2
 2565 001c 93070007 		li	a5,112
 2566 0020 2E84     		mv	s0,a1
 2567 0022 63E6B706 		bgtu	a1,a5,.L97
 2568 0026 B284     		mv	s1,a2
 2569              	.LBB350:
 2570              	.LBB351:
 501:lcd.c         **** 	num=num-' ';                        // Get offset value
 2571              		.loc 1 501 5
 2572 0028 8114     		addi	s1,s1,-32
 2573 002a 93F4F40F 		andi	s1,s1,0xff
 2574 002e B68A     		mv	s5,a3
 502:lcd.c         **** 	LCD_Address_Set(x,y,x+8-1,y+16-1);  // Set cursor position
 2575              		.loc 1 502 2
 2576 0030 13067500 		addi	a2,a0,7
 2577              	.LVL270:
 2578 0034 9386F500 		addi	a3,a1,15
 2579              	.LVL271:
 2580 0038 13994400 		slli	s2,s1,4
 2581 003c B7040000 		lui	s1,%hi(.LANCHOR6)
 2582 0040 AA89     		mv	s3,a0
 2583 0042 3A8A     		mv	s4,a4
 2584              	.LVL272:
 501:lcd.c         **** 	num=num-' ';                        // Get offset value
 2585              		.loc 1 501 2 is_stmt 1
 2586              		.loc 1 502 2
 2587 0044 93840400 		addi	s1,s1,%lo(.LANCHOR6)
 2588 0048 97000000 		call	LCD_Address_Set
 2588      E7800000 
GAS LISTING C:\Users\nesre\AppData\Local\Temp\ccPTohGt.s 			page 61


 2589              	.LVL273:
 503:lcd.c         **** 	if(!mode)
 2590              		.loc 1 503 2
 2591              		.loc 1 503 4 is_stmt 0
 2592 0050 639A0A04 		bne	s5,zero,.L100
 2593 0054 8149     		li	s3,0
 2594              	.LVL274:
 504:lcd.c         **** 	{
 505:lcd.c         **** 		// non-trasparent mode
 506:lcd.c         **** 		for(pos=0;pos<16;pos++)
 507:lcd.c         **** 		{ 
 508:lcd.c         **** 			temp=asc2_1608[(u16)num*16+pos];  // load 1608 font character
 509:lcd.c         **** 			for(t=0;t<8;t++)
 510:lcd.c         **** 		    {                 
 511:lcd.c         **** 		        if(temp&0x01)LCD_WR_DATA(color);
 512:lcd.c         **** 				else LCD_WR_DATA(BACK_COLOR);
 2595              		.loc 1 512 10
 2596 0056 B70B0000 		lui	s7,%hi(BACK_COLOR)
 506:lcd.c         **** 		{ 
 2597              		.loc 1 506 3
 2598 005a 414B     		li	s6,16
 2599              	.LVL275:
 2600              	.L104:
 508:lcd.c         **** 			for(t=0;t<8;t++)
 2601              		.loc 1 508 4 is_stmt 1
 508:lcd.c         **** 			for(t=0;t<8;t++)
 2602              		.loc 1 508 8 is_stmt 0
 2603 005c B3073901 		add	a5,s2,s3
 2604 0060 A697     		add	a5,s1,a5
 2605 0062 83CA0700 		lbu	s5,0(a5)
 2606              	.LVL276:
 509:lcd.c         **** 		    {                 
 2607              		.loc 1 509 4 is_stmt 1
 508:lcd.c         **** 			for(t=0;t<8;t++)
 2608              		.loc 1 508 8 is_stmt 0
 2609 0066 2144     		li	s0,8
 2610              	.LVL277:
 2611              	.L103:
 511:lcd.c         **** 				else LCD_WR_DATA(BACK_COLOR);
 2612              		.loc 1 511 11 is_stmt 1
 511:lcd.c         **** 				else LCD_WR_DATA(BACK_COLOR);
 2613              		.loc 1 511 13 is_stmt 0
 2614 0068 93F71A00 		andi	a5,s5,1
 511:lcd.c         **** 				else LCD_WR_DATA(BACK_COLOR);
 2615              		.loc 1 511 24
 2616 006c 5285     		mv	a0,s4
 511:lcd.c         **** 				else LCD_WR_DATA(BACK_COLOR);
 2617              		.loc 1 511 13
 2618 006e 99E3     		bne	a5,zero,.L119
 2619              	.LVL278:
 2620              		.loc 1 512 10 is_stmt 1
 2621 0070 03A50B00 		lw	a0,%lo(BACK_COLOR)(s7)
 2622              	.LVL279:
 2623              	.L119:
 2624 0074 7D14     		addi	s0,s0,-1
 2625              	.LVL280:
 2626 0076 1374F40F 		andi	s0,s0,0xff
GAS LISTING C:\Users\nesre\AppData\Local\Temp\ccPTohGt.s 			page 62


 2627 007a 97000000 		call	LCD_WR_DATA
 2627      E7800000 
 2628              	.LVL281:
 513:lcd.c         **** 				temp>>=1;
 2629              		.loc 1 513 5
 2630              		.loc 1 513 9 is_stmt 0
 2631 0082 93DA1A00 		srli	s5,s5,1
 2632              	.LVL282:
 514:lcd.c         **** 				x++;
 2633              		.loc 1 514 5 is_stmt 1
 509:lcd.c         **** 		    {                 
 2634              		.loc 1 509 4 is_stmt 0
 2635 0086 6DF0     		bne	s0,zero,.L103
 515:lcd.c         **** 		    }
 516:lcd.c         **** 			x=x0;
 2636              		.loc 1 516 4 is_stmt 1
 2637              	.LVL283:
 517:lcd.c         **** 			y++;
 2638              		.loc 1 517 4
 2639 0088 8509     		addi	s3,s3,1
 2640              	.LVL284:
 506:lcd.c         **** 		{ 
 2641              		.loc 1 506 3 is_stmt 0
 2642 008a E39969FD 		bne	s3,s6,.L104
 2643              	.LVL285:
 2644              	.L97:
 2645              	.LBE351:
 2646              	.LBE350:
 518:lcd.c         **** 		}	
 519:lcd.c         **** 	}else
 520:lcd.c         **** 	{
 521:lcd.c         **** 		// Transparent mode
 522:lcd.c         **** 		for(pos=0;pos<16;pos++)
 523:lcd.c         **** 		{
 524:lcd.c         **** 		    temp=asc2_1608[(u16)num*16+pos]; // load 1608 font character
 525:lcd.c         **** 			for(t=0;t<8;t++)
 526:lcd.c         **** 		    {                 
 527:lcd.c         **** 		        if(temp&0x01)LCD_DrawPoint(x+t,y+pos,color); //Draw a dot
 528:lcd.c         **** 		        temp>>=1; 
 529:lcd.c         **** 		    }
 530:lcd.c         **** 		}
 531:lcd.c         **** 	}   	   	 	  
 532:lcd.c         **** }
 2647              		.loc 1 532 1
 2648 008e B250     		lw	ra,44(sp)
 2649              		.cfi_remember_state
 2650              		.cfi_restore 1
 2651 0090 2254     		lw	s0,40(sp)
 2652              		.cfi_restore 8
 2653 0092 9254     		lw	s1,36(sp)
 2654              		.cfi_restore 9
 2655 0094 0259     		lw	s2,32(sp)
 2656              		.cfi_restore 18
 2657 0096 F249     		lw	s3,28(sp)
 2658              		.cfi_restore 19
 2659 0098 624A     		lw	s4,24(sp)
 2660              		.cfi_restore 20
GAS LISTING C:\Users\nesre\AppData\Local\Temp\ccPTohGt.s 			page 63


 2661 009a D24A     		lw	s5,20(sp)
 2662              		.cfi_restore 21
 2663 009c 424B     		lw	s6,16(sp)
 2664              		.cfi_restore 22
 2665 009e B24B     		lw	s7,12(sp)
 2666              		.cfi_restore 23
 2667 00a0 4561     		addi	sp,sp,48
 2668              	.LCFI39:
 2669              		.cfi_def_cfa_offset 0
 2670 00a2 8280     		jr	ra
 2671              	.LVL286:
 2672              	.L100:
 2673              	.LCFI40:
 2674              		.cfi_restore_state
 2675 00a4 CA94     		add	s1,s1,s2
 2676 00a6 130B0401 		addi	s6,s0,16
 2677              	.LBB353:
 2678              	.LBB352:
 525:lcd.c         **** 		    {                 
 2679              		.loc 1 525 4
 2680 00aa A14B     		li	s7,8
 2681              	.LVL287:
 2682              	.L107:
 524:lcd.c         **** 			for(t=0;t<8;t++)
 2683              		.loc 1 524 7 is_stmt 1
 524:lcd.c         **** 			for(t=0;t<8;t++)
 2684              		.loc 1 524 11 is_stmt 0
 2685 00ac 83CA0400 		lbu	s5,0(s1)
 2686              	.LVL288:
 525:lcd.c         **** 		    {                 
 2687              		.loc 1 525 4 is_stmt 1
 524:lcd.c         **** 			for(t=0;t<8;t++)
 2688              		.loc 1 524 11 is_stmt 0
 2689 00b0 0149     		li	s2,0
 2690              	.LVL289:
 2691              	.L106:
 527:lcd.c         **** 		        temp>>=1; 
 2692              		.loc 1 527 11 is_stmt 1
 527:lcd.c         **** 		        temp>>=1; 
 2693              		.loc 1 527 13 is_stmt 0
 2694 00b2 93F71A00 		andi	a5,s5,1
 2695 00b6 89CB     		beq	a5,zero,.L105
 527:lcd.c         **** 		        temp>>=1; 
 2696              		.loc 1 527 24 is_stmt 1
 2697 00b8 5286     		mv	a2,s4
 2698 00ba A285     		mv	a1,s0
 2699 00bc 33852901 		add	a0,s3,s2
 2700 00c0 97000000 		call	LCD_DrawPoint
 2700      E7800000 
 2701              	.LVL290:
 2702              	.L105:
 528:lcd.c         **** 		    }
 2703              		.loc 1 528 11
 2704 00c8 0509     		addi	s2,s2,1
 2705              	.LVL291:
 528:lcd.c         **** 		    }
 2706              		.loc 1 528 15 is_stmt 0
GAS LISTING C:\Users\nesre\AppData\Local\Temp\ccPTohGt.s 			page 64


 2707 00ca 93DA1A00 		srli	s5,s5,1
 2708              	.LVL292:
 525:lcd.c         **** 		    {                 
 2709              		.loc 1 525 4
 2710 00ce E31279FF 		bne	s2,s7,.L106
 2711 00d2 0504     		addi	s0,s0,1
 2712 00d4 8504     		addi	s1,s1,1
 522:lcd.c         **** 		{
 2713              		.loc 1 522 3
 2714 00d6 E31B64FD 		bne	s0,s6,.L107
 2715 00da 55BF     		j	.L97
 2716              	.LVL293:
 2717              	.L116:
 2718              	.LCFI41:
 2719              		.cfi_def_cfa_offset 0
 2720              		.cfi_restore 1
 2721              		.cfi_restore 8
 2722              		.cfi_restore 9
 2723              		.cfi_restore 18
 2724              		.cfi_restore 19
 2725              		.cfi_restore 20
 2726              		.cfi_restore 21
 2727              		.cfi_restore 22
 2728              		.cfi_restore 23
 2729 00dc 8280     		ret
 2730              	.LBE352:
 2731              	.LBE353:
 2732              		.cfi_endproc
 2733              	.LFE22:
 2735              		.section	.text.LCD_ShowString,"ax",@progbits
 2736              		.align	1
 2737              		.globl	LCD_ShowString
 2739              	LCD_ShowString:
 2740              	.LFB23:
 533:lcd.c         **** 
 534:lcd.c         **** 
 535:lcd.c         **** /*
 536:lcd.c         ****   Function description: display string
 537:lcd.c         ****   Entry data: x, y:  start point coordinates
 538:lcd.c         ****                 *p:  string start address
 539:lcd.c         ****   Return value: None
 540:lcd.c         ****   Note: If character position is outside the display area
 541:lcd.c         ****         display is cleared in red color and the character
 542:lcd.c         **** 		position is set to (0,0)
 543:lcd.c         **** */
 544:lcd.c         **** void LCD_ShowString(u16 x,u16 y,const u8 *p,u16 color)
 545:lcd.c         **** {         
 2741              		.loc 1 545 1 is_stmt 1
 2742              		.cfi_startproc
 2743              	.LVL294:
 546:lcd.c         ****     while(*p!='\0')
 2744              		.loc 1 546 5
 545:lcd.c         ****     while(*p!='\0')
 2745              		.loc 1 545 1 is_stmt 0
 2746 0000 0111     		addi	sp,sp,-32
 2747              	.LCFI42:
 2748              		.cfi_def_cfa_offset 32
GAS LISTING C:\Users\nesre\AppData\Local\Temp\ccPTohGt.s 			page 65


 2749 0002 4EC6     		sw	s3,12(sp)
 2750              		.cfi_offset 19, -20
 547:lcd.c         ****     {       
 548:lcd.c         ****         if(x>LCD_W-8){x=0;y+=16;}
 549:lcd.c         ****         if(y>LCD_H-16){y=x=0;LCD_Clear(RED);}
 2751              		.loc 1 549 30
 2752 0004 C169     		li	s3,65536
 545:lcd.c         ****     while(*p!='\0')
 2753              		.loc 1 545 1
 2754 0006 22CC     		sw	s0,24(sp)
 2755 0008 26CA     		sw	s1,20(sp)
 2756 000a 4AC8     		sw	s2,16(sp)
 2757 000c 52C4     		sw	s4,8(sp)
 2758 000e 56C2     		sw	s5,4(sp)
 2759 0010 5AC0     		sw	s6,0(sp)
 2760 0012 06CE     		sw	ra,28(sp)
 2761              		.cfi_offset 8, -8
 2762              		.cfi_offset 9, -12
 2763              		.cfi_offset 18, -16
 2764              		.cfi_offset 20, -24
 2765              		.cfi_offset 21, -28
 2766              		.cfi_offset 22, -32
 2767              		.cfi_offset 1, -4
 545:lcd.c         ****     while(*p!='\0')
 2768              		.loc 1 545 1
 2769 0014 2A84     		mv	s0,a0
 2770 0016 AE84     		mv	s1,a1
 2771 0018 3289     		mv	s2,a2
 2772 001a 368A     		mv	s4,a3
 548:lcd.c         ****         if(y>LCD_H-16){y=x=0;LCD_Clear(RED);}
 2773              		.loc 1 548 11
 2774 001c 930A8009 		li	s5,152
 2775              		.loc 1 549 11
 2776 0020 130B0007 		li	s6,112
 2777              		.loc 1 549 30
 2778 0024 93890980 		addi	s3,s3,-2048
 2779              	.LVL295:
 2780              	.L121:
 546:lcd.c         ****     {       
 2781              		.loc 1 546 10
 2782 0028 83470900 		lbu	a5,0(s2)
 2783 002c 99EB     		bne	a5,zero,.L124
 550:lcd.c         ****         LCD_ShowChar(x,y,*p,0,color);
 551:lcd.c         ****         x+=8;
 552:lcd.c         ****         p++;
 553:lcd.c         ****     }  
 554:lcd.c         **** }
 2784              		.loc 1 554 1
 2785 002e F240     		lw	ra,28(sp)
 2786              		.cfi_remember_state
 2787              		.cfi_restore 1
 2788 0030 6244     		lw	s0,24(sp)
 2789              		.cfi_restore 8
 2790              	.LVL296:
 2791 0032 D244     		lw	s1,20(sp)
 2792              		.cfi_restore 9
 2793              	.LVL297:
GAS LISTING C:\Users\nesre\AppData\Local\Temp\ccPTohGt.s 			page 66


 2794 0034 4249     		lw	s2,16(sp)
 2795              		.cfi_restore 18
 2796              	.LVL298:
 2797 0036 B249     		lw	s3,12(sp)
 2798              		.cfi_restore 19
 2799 0038 224A     		lw	s4,8(sp)
 2800              		.cfi_restore 20
 2801              	.LVL299:
 2802 003a 924A     		lw	s5,4(sp)
 2803              		.cfi_restore 21
 2804 003c 024B     		lw	s6,0(sp)
 2805              		.cfi_restore 22
 2806 003e 0561     		addi	sp,sp,32
 2807              	.LCFI43:
 2808              		.cfi_def_cfa_offset 0
 2809 0040 8280     		jr	ra
 2810              	.LVL300:
 2811              	.L124:
 2812              	.LCFI44:
 2813              		.cfi_restore_state
 548:lcd.c         ****         if(y>LCD_H-16){y=x=0;LCD_Clear(RED);}
 2814              		.loc 1 548 9 is_stmt 1
 548:lcd.c         ****         if(y>LCD_H-16){y=x=0;LCD_Clear(RED);}
 2815              		.loc 1 548 11 is_stmt 0
 2816 0042 63F48A00 		bleu	s0,s5,.L122
 548:lcd.c         ****         if(y>LCD_H-16){y=x=0;LCD_Clear(RED);}
 2817              		.loc 1 548 23 is_stmt 1 discriminator 1
 2818              	.LVL301:
 548:lcd.c         ****         if(y>LCD_H-16){y=x=0;LCD_Clear(RED);}
 2819              		.loc 1 548 27 discriminator 1
 548:lcd.c         ****         if(y>LCD_H-16){y=x=0;LCD_Clear(RED);}
 2820              		.loc 1 548 28 is_stmt 0 discriminator 1
 2821 0046 C104     		addi	s1,s1,16
 2822              	.LVL302:
 548:lcd.c         ****         if(y>LCD_H-16){y=x=0;LCD_Clear(RED);}
 2823              		.loc 1 548 24 discriminator 1
 2824 0048 0144     		li	s0,0
 2825              	.LVL303:
 2826              	.L122:
 549:lcd.c         ****         LCD_ShowChar(x,y,*p,0,color);
 2827              		.loc 1 549 9 is_stmt 1
 549:lcd.c         ****         LCD_ShowChar(x,y,*p,0,color);
 2828              		.loc 1 549 11 is_stmt 0
 2829 004a 63799B00 		bleu	s1,s6,.L123
 549:lcd.c         ****         LCD_ShowChar(x,y,*p,0,color);
 2830              		.loc 1 549 24 is_stmt 1 discriminator 1
 2831              	.LVL304:
 549:lcd.c         ****         LCD_ShowChar(x,y,*p,0,color);
 2832              		.loc 1 549 30 discriminator 1
 2833 004e 4E85     		mv	a0,s3
 2834 0050 97000000 		call	LCD_Clear
 2834      E7800000 
 2835              	.LVL305:
 549:lcd.c         ****         LCD_ShowChar(x,y,*p,0,color);
 2836              		.loc 1 549 25 is_stmt 0 discriminator 1
 2837 0058 8144     		li	s1,0
 549:lcd.c         ****         LCD_ShowChar(x,y,*p,0,color);
GAS LISTING C:\Users\nesre\AppData\Local\Temp\ccPTohGt.s 			page 67


 2838              		.loc 1 549 27 discriminator 1
 2839 005a 0144     		li	s0,0
 2840              	.LVL306:
 2841              	.L123:
 550:lcd.c         ****         LCD_ShowChar(x,y,*p,0,color);
 2842              		.loc 1 550 9 is_stmt 1
 2843 005c 03460900 		lbu	a2,0(s2)
 2844 0060 2285     		mv	a0,s0
 2845 0062 5287     		mv	a4,s4
 2846 0064 8146     		li	a3,0
 2847 0066 A685     		mv	a1,s1
 2848 0068 97000000 		call	LCD_ShowChar
 2848      E7800000 
 2849              	.LVL307:
 551:lcd.c         ****         p++;
 2850              		.loc 1 551 9
 551:lcd.c         ****         p++;
 2851              		.loc 1 551 10 is_stmt 0
 2852 0070 2104     		addi	s0,s0,8
 2853              	.LVL308:
 552:lcd.c         ****     }  
 2854              		.loc 1 552 9 is_stmt 1
 552:lcd.c         ****     }  
 2855              		.loc 1 552 10 is_stmt 0
 2856 0072 0509     		addi	s2,s2,1
 2857              	.LVL309:
 2858 0074 55BF     		j	.L121
 2859              		.cfi_endproc
 2860              	.LFE23:
 2862              		.section	.text.LCD_ShowStr,"ax",@progbits
 2863              		.align	1
 2864              		.globl	LCD_ShowStr
 2866              	LCD_ShowStr:
 2867              	.LFB24:
 555:lcd.c         **** 
 556:lcd.c         **** 
 557:lcd.c         **** /*
 558:lcd.c         ****   Function description: display string
 559:lcd.c         ****   Entry data: x, y:  start point coordinates
 560:lcd.c         ****                 *p:  string start address
 561:lcd.c         ****               mode:  1: transparent mode
 562:lcd.c         ****                      0: non-transparent mode
 563:lcd.c         ****   Return value: None
 564:lcd.c         ****   Note: If character position is outside the display area
 565:lcd.c         ****         the character is not displayed
 566:lcd.c         **** */
 567:lcd.c         **** void LCD_ShowStr(u16 x,u16 y,const u8 *p,u16 color, u8 mode)
 568:lcd.c         **** {         
 2868              		.loc 1 568 1 is_stmt 1
 2869              		.cfi_startproc
 2870              	.LVL310:
 569:lcd.c         ****     while(*p!='\0')
 2871              		.loc 1 569 5
 568:lcd.c         ****     while(*p!='\0')
 2872              		.loc 1 568 1 is_stmt 0
 2873 0000 0111     		addi	sp,sp,-32
 2874              	.LCFI45:
GAS LISTING C:\Users\nesre\AppData\Local\Temp\ccPTohGt.s 			page 68


 2875              		.cfi_def_cfa_offset 32
 2876 0002 22CC     		sw	s0,24(sp)
 2877 0004 26CA     		sw	s1,20(sp)
 2878 0006 4AC8     		sw	s2,16(sp)
 2879 0008 4EC6     		sw	s3,12(sp)
 2880 000a 52C4     		sw	s4,8(sp)
 2881 000c 56C2     		sw	s5,4(sp)
 2882 000e 5AC0     		sw	s6,0(sp)
 2883 0010 06CE     		sw	ra,28(sp)
 2884              		.cfi_offset 8, -8
 2885              		.cfi_offset 9, -12
 2886              		.cfi_offset 18, -16
 2887              		.cfi_offset 19, -20
 2888              		.cfi_offset 20, -24
 2889              		.cfi_offset 21, -28
 2890              		.cfi_offset 22, -32
 2891              		.cfi_offset 1, -4
 568:lcd.c         ****     while(*p!='\0')
 2892              		.loc 1 568 1
 2893 0012 2A84     		mv	s0,a0
 2894 0014 AE84     		mv	s1,a1
 2895 0016 3289     		mv	s2,a2
 2896 0018 B689     		mv	s3,a3
 2897 001a 3A8A     		mv	s4,a4
 570:lcd.c         ****     {       
 571:lcd.c         ****         if(x>LCD_W-8){x=0;y+=16;}
 2898              		.loc 1 571 11
 2899 001c 930A8009 		li	s5,152
 572:lcd.c         ****         if(y>LCD_H-16) break;
 2900              		.loc 1 572 11
 2901 0020 130B0007 		li	s6,112
 2902              	.LVL311:
 2903              	.L127:
 569:lcd.c         ****     {       
 2904              		.loc 1 569 11
 2905 0024 03460900 		lbu	a2,0(s2)
 569:lcd.c         ****     {       
 2906              		.loc 1 569 10
 2907 0028 19EA     		bne	a2,zero,.L130
 2908              	.L126:
 573:lcd.c         ****         LCD_ShowChar(x,y,*p,mode,color);
 574:lcd.c         ****         x+=8;
 575:lcd.c         ****         p++;
 576:lcd.c         ****     }  
 577:lcd.c         **** }
 2909              		.loc 1 577 1
 2910 002a F240     		lw	ra,28(sp)
 2911              		.cfi_remember_state
 2912              		.cfi_restore 1
 2913 002c 6244     		lw	s0,24(sp)
 2914              		.cfi_restore 8
 2915              	.LVL312:
 2916 002e D244     		lw	s1,20(sp)
 2917              		.cfi_restore 9
 2918              	.LVL313:
 2919 0030 4249     		lw	s2,16(sp)
 2920              		.cfi_restore 18
GAS LISTING C:\Users\nesre\AppData\Local\Temp\ccPTohGt.s 			page 69


 2921              	.LVL314:
 2922 0032 B249     		lw	s3,12(sp)
 2923              		.cfi_restore 19
 2924              	.LVL315:
 2925 0034 224A     		lw	s4,8(sp)
 2926              		.cfi_restore 20
 2927 0036 924A     		lw	s5,4(sp)
 2928              		.cfi_restore 21
 2929 0038 024B     		lw	s6,0(sp)
 2930              		.cfi_restore 22
 2931 003a 0561     		addi	sp,sp,32
 2932              	.LCFI46:
 2933              		.cfi_def_cfa_offset 0
 2934 003c 8280     		jr	ra
 2935              	.LVL316:
 2936              	.L130:
 2937              	.LCFI47:
 2938              		.cfi_restore_state
 571:lcd.c         ****         if(y>LCD_H-16) break;
 2939              		.loc 1 571 9 is_stmt 1
 571:lcd.c         ****         if(y>LCD_H-16) break;
 2940              		.loc 1 571 11 is_stmt 0
 2941 003e 63F48A00 		bleu	s0,s5,.L128
 571:lcd.c         ****         if(y>LCD_H-16) break;
 2942              		.loc 1 571 23 is_stmt 1 discriminator 1
 2943              	.LVL317:
 571:lcd.c         ****         if(y>LCD_H-16) break;
 2944              		.loc 1 571 27 discriminator 1
 571:lcd.c         ****         if(y>LCD_H-16) break;
 2945              		.loc 1 571 28 is_stmt 0 discriminator 1
 2946 0042 C104     		addi	s1,s1,16
 2947              	.LVL318:
 571:lcd.c         ****         if(y>LCD_H-16) break;
 2948              		.loc 1 571 24 discriminator 1
 2949 0044 0144     		li	s0,0
 2950              	.LVL319:
 2951              	.L128:
 572:lcd.c         ****         LCD_ShowChar(x,y,*p,mode,color);
 2952              		.loc 1 572 9 is_stmt 1
 572:lcd.c         ****         LCD_ShowChar(x,y,*p,mode,color);
 2953              		.loc 1 572 11 is_stmt 0
 2954 0046 E3629BFE 		bgtu	s1,s6,.L126
 573:lcd.c         ****         LCD_ShowChar(x,y,*p,mode,color);
 2955              		.loc 1 573 9 is_stmt 1
 2956 004a 2285     		mv	a0,s0
 2957 004c 4E87     		mv	a4,s3
 2958 004e D286     		mv	a3,s4
 2959 0050 A685     		mv	a1,s1
 2960 0052 97000000 		call	LCD_ShowChar
 2960      E7800000 
 2961              	.LVL320:
 574:lcd.c         ****         p++;
 2962              		.loc 1 574 9
 574:lcd.c         ****         p++;
 2963              		.loc 1 574 10 is_stmt 0
 2964 005a 2104     		addi	s0,s0,8
 2965              	.LVL321:
GAS LISTING C:\Users\nesre\AppData\Local\Temp\ccPTohGt.s 			page 70


 575:lcd.c         ****     }  
 2966              		.loc 1 575 9 is_stmt 1
 575:lcd.c         ****     }  
 2967              		.loc 1 575 10 is_stmt 0
 2968 005c 0509     		addi	s2,s2,1
 2969              	.LVL322:
 2970 005e D9B7     		j	.L127
 2971              		.cfi_endproc
 2972              	.LFE24:
 2974              		.section	.text.mypow,"ax",@progbits
 2975              		.align	1
 2976              		.globl	mypow
 2978              	mypow:
 2979              	.LFB25:
 578:lcd.c         **** 
 579:lcd.c         **** 
 580:lcd.c         **** /*
 581:lcd.c         ****   Function description: Calculate m^n
 582:lcd.c         ****   Entry data: m: base
 583:lcd.c         ****               n: exponent
 584:lcd.c         ****   Return value: m^n
 585:lcd.c         **** */
 586:lcd.c         **** u32 mypow(u8 m,u8 n)
 587:lcd.c         **** {
 2980              		.loc 1 587 1 is_stmt 1
 2981              		.cfi_startproc
 2982              	.LVL323:
 588:lcd.c         **** 	u32 result=1;	 
 2983              		.loc 1 588 2
 589:lcd.c         **** 	while(n--)result*=m;    
 2984              		.loc 1 589 2
 588:lcd.c         **** 	u32 result=1;	 
 2985              		.loc 1 588 6 is_stmt 0
 2986 0000 8547     		li	a5,1
 2987              		.loc 1 589 7
 2988 0002 1307F00F 		li	a4,255
 2989              	.LVL324:
 2990              	.L133:
 2991              		.loc 1 589 9 discriminator 1
 2992 0006 FD15     		addi	a1,a1,-1
 2993              	.LVL325:
 2994 0008 93F5F50F 		andi	a1,a1,0xff
 2995              	.LVL326:
 2996              		.loc 1 589 7 discriminator 1
 2997 000c 6394E500 		bne	a1,a4,.L134
 590:lcd.c         **** 	return result;
 2998              		.loc 1 590 2 is_stmt 1
 591:lcd.c         **** }
 2999              		.loc 1 591 1 is_stmt 0
 3000 0010 3E85     		mv	a0,a5
 3001              	.LVL327:
 3002 0012 8280     		ret
 3003              	.LVL328:
 3004              	.L134:
 589:lcd.c         **** 	while(n--)result*=m;    
 3005              		.loc 1 589 12 is_stmt 1 discriminator 2
 589:lcd.c         **** 	while(n--)result*=m;    
GAS LISTING C:\Users\nesre\AppData\Local\Temp\ccPTohGt.s 			page 71


 3006              		.loc 1 589 18 is_stmt 0 discriminator 2
 3007 0014 B387A702 		mul	a5,a5,a0
 3008              	.LVL329:
 3009 0018 FDB7     		j	.L133
 3010              		.cfi_endproc
 3011              	.LFE25:
 3013              		.section	.text.LCD_ShowNum,"ax",@progbits
 3014              		.align	1
 3015              		.globl	LCD_ShowNum
 3017              	LCD_ShowNum:
 3018              	.LFB26:
 592:lcd.c         **** 
 593:lcd.c         **** 
 594:lcd.c         **** /*
 595:lcd.c         ****   Function description: display 16-bit integer numbers
 596:lcd.c         ****   Entry data: x, y:  start point coordinates
 597:lcd.c         ****                num:  number to display
 598:lcd.c         ****                len:  number of digits to display
 599:lcd.c         ****   Return value: None
 600:lcd.c         **** */
 601:lcd.c         **** void LCD_ShowNum(u16 x,u16 y,u16 num,u8 len,u16 color)
 602:lcd.c         **** {         	
 3019              		.loc 1 602 1 is_stmt 1
 3020              		.cfi_startproc
 3021              	.LVL330:
 603:lcd.c         **** 	u8 t,temp;
 3022              		.loc 1 603 2
 604:lcd.c         **** 	u8 enshow=0;
 3023              		.loc 1 604 2
 605:lcd.c         **** 	for(t=0;t<len;t++)
 3024              		.loc 1 605 2
 602:lcd.c         **** 	u8 t,temp;
 3025              		.loc 1 602 1 is_stmt 0
 3026 0000 7971     		addi	sp,sp,-48
 3027              	.LCFI48:
 3028              		.cfi_def_cfa_offset 48
 3029 0002 56CA     		sw	s5,20(sp)
 3030              		.cfi_offset 21, -28
 3031 0004 938AF6FF 		addi	s5,a3,-1
 3032 0008 22D4     		sw	s0,40(sp)
 3033 000a 26D2     		sw	s1,36(sp)
 3034 000c 4AD0     		sw	s2,32(sp)
 3035 000e 4ECE     		sw	s3,28(sp)
 3036 0010 52CC     		sw	s4,24(sp)
 3037 0012 5AC8     		sw	s6,16(sp)
 3038 0014 5EC6     		sw	s7,12(sp)
 3039 0016 62C4     		sw	s8,8(sp)
 3040 0018 66C2     		sw	s9,4(sp)
 3041 001a 06D6     		sw	ra,44(sp)
 3042              		.cfi_offset 8, -8
 3043              		.cfi_offset 9, -12
 3044              		.cfi_offset 18, -16
 3045              		.cfi_offset 19, -20
 3046              		.cfi_offset 20, -24
 3047              		.cfi_offset 22, -32
 3048              		.cfi_offset 23, -36
 3049              		.cfi_offset 24, -40
GAS LISTING C:\Users\nesre\AppData\Local\Temp\ccPTohGt.s 			page 72


 3050              		.cfi_offset 25, -44
 3051              		.cfi_offset 1, -4
 602:lcd.c         **** 	u8 t,temp;
 3052              		.loc 1 602 1
 3053 001c AA8B     		mv	s7,a0
 3054 001e AE89     		mv	s3,a1
 3055 0020 328C     		mv	s8,a2
 3056 0022 3A8A     		mv	s4,a4
 3057 0024 13F4FA0F 		andi	s0,s5,0xff
 3058              		.loc 1 605 2
 3059 0028 814C     		li	s9,0
 604:lcd.c         **** 	u8 enshow=0;
 3060              		.loc 1 604 5
 3061 002a 0149     		li	s2,0
 3062              		.loc 1 605 2
 3063 002c 9304F00F 		li	s1,255
 3064              	.LBB354:
 3065              	.LBB355:
 589:lcd.c         **** 	return result;
 3066              		.loc 1 589 18
 3067 0030 294B     		li	s6,10
 3068              	.LVL331:
 3069              	.L136:
 3070              	.LBE355:
 3071              	.LBE354:
 3072              		.loc 1 605 2 discriminator 1
 3073 0032 63129406 		bne	s0,s1,.L142
 606:lcd.c         **** 	{
 607:lcd.c         **** 		temp=(num/mypow(10,len-t-1))%10;
 608:lcd.c         **** 		if(enshow==0&&t<(len-1))
 609:lcd.c         **** 		{
 610:lcd.c         **** 			if(temp==0)
 611:lcd.c         **** 			{
 612:lcd.c         **** 				LCD_ShowChar(x+8*t,y,' ',0,color);
 613:lcd.c         **** 				continue;
 614:lcd.c         **** 			}else enshow=1; 
 615:lcd.c         **** 		 	 
 616:lcd.c         **** 		}
 617:lcd.c         **** 	 	LCD_ShowChar(x+8*t,y,temp+48,0,color); 
 618:lcd.c         **** 	}
 619:lcd.c         **** } 
 3074              		.loc 1 619 1
 3075 0036 B250     		lw	ra,44(sp)
 3076              		.cfi_remember_state
 3077              		.cfi_restore 1
 3078 0038 2254     		lw	s0,40(sp)
 3079              		.cfi_restore 8
 3080 003a 9254     		lw	s1,36(sp)
 3081              		.cfi_restore 9
 3082 003c 0259     		lw	s2,32(sp)
 3083              		.cfi_restore 18
 3084              	.LVL332:
 3085 003e F249     		lw	s3,28(sp)
 3086              		.cfi_restore 19
 3087              	.LVL333:
 3088 0040 624A     		lw	s4,24(sp)
 3089              		.cfi_restore 20
GAS LISTING C:\Users\nesre\AppData\Local\Temp\ccPTohGt.s 			page 73


 3090              	.LVL334:
 3091 0042 D24A     		lw	s5,20(sp)
 3092              		.cfi_restore 21
 3093 0044 424B     		lw	s6,16(sp)
 3094              		.cfi_restore 22
 3095 0046 B24B     		lw	s7,12(sp)
 3096              		.cfi_restore 23
 3097              	.LVL335:
 3098 0048 224C     		lw	s8,8(sp)
 3099              		.cfi_restore 24
 3100              	.LVL336:
 3101 004a 924C     		lw	s9,4(sp)
 3102              		.cfi_restore 25
 3103              	.LVL337:
 3104 004c 4561     		addi	sp,sp,48
 3105              	.LCFI49:
 3106              		.cfi_def_cfa_offset 0
 3107 004e 8280     		jr	ra
 3108              	.LVL338:
 3109              	.L137:
 3110              	.LCFI50:
 3111              		.cfi_restore_state
 3112              	.LBB358:
 3113              	.LBB356:
 589:lcd.c         **** 	return result;
 3114              		.loc 1 589 12 is_stmt 1
 589:lcd.c         **** 	return result;
 3115              		.loc 1 589 18 is_stmt 0
 3116 0050 B3876703 		mul	a5,a5,s6
 3117              	.LVL339:
 3118              	.L140:
 589:lcd.c         **** 	return result;
 3119              		.loc 1 589 9
 3120 0054 7D17     		addi	a4,a4,-1
 3121              	.LVL340:
 3122 0056 1377F70F 		andi	a4,a4,0xff
 3123              	.LVL341:
 589:lcd.c         **** 	return result;
 3124              		.loc 1 589 7
 3125 005a E31B97FE 		bne	a4,s1,.L137
 590:lcd.c         **** }
 3126              		.loc 1 590 2 is_stmt 1
 3127              	.LVL342:
 3128 005e 13953C00 		slli	a0,s9,3
 3129 0062 5E95     		add	a0,a0,s7
 3130              	.LBE356:
 3131              	.LBE358:
 607:lcd.c         **** 		if(enshow==0&&t<(len-1))
 3132              		.loc 1 607 12 is_stmt 0
 3133 0064 B357FC02 		divu	a5,s8,a5
 607:lcd.c         **** 		if(enshow==0&&t<(len-1))
 3134              		.loc 1 607 31
 3135 0068 B3F76703 		remu	a5,a5,s6
 607:lcd.c         **** 		if(enshow==0&&t<(len-1))
 3136              		.loc 1 607 7
 3137 006c 13F6F70F 		andi	a2,a5,0xff
 3138              	.LVL343:
GAS LISTING C:\Users\nesre\AppData\Local\Temp\ccPTohGt.s 			page 74


 608:lcd.c         **** 		{
 3139              		.loc 1 608 3 is_stmt 1
 608:lcd.c         **** 		{
 3140              		.loc 1 608 5 is_stmt 0
 3141 0070 63170902 		bne	s2,zero,.L138
 608:lcd.c         **** 		{
 3142              		.loc 1 608 15 discriminator 1
 3143 0074 63D55C03 		ble	s5,s9,.L138
 610:lcd.c         **** 			{
 3144              		.loc 1 610 4 is_stmt 1
 610:lcd.c         **** 			{
 3145              		.loc 1 610 6 is_stmt 0
 3146 0078 95E3     		bne	a5,zero,.L141
 612:lcd.c         **** 				continue;
 3147              		.loc 1 612 5 is_stmt 1
 3148 007a 5287     		mv	a4,s4
 3149 007c 8146     		li	a3,0
 3150 007e 13060002 		li	a2,32
 3151              	.LVL344:
 3152              	.L144:
 617:lcd.c         **** 	}
 3153              		.loc 1 617 4 is_stmt 0
 3154 0082 CE85     		mv	a1,s3
 3155 0084 7D14     		addi	s0,s0,-1
 3156 0086 97000000 		call	LCD_ShowChar
 3156      E7800000 
 3157              	.LVL345:
 3158 008e 850C     		addi	s9,s9,1
 3159              	.LVL346:
 3160 0090 1374F40F 		andi	s0,s0,0xff
 3161 0094 79BF     		j	.L136
 3162              	.LVL347:
 3163              	.L142:
 3164 0096 2287     		mv	a4,s0
 3165              	.LBB359:
 3166              	.LBB357:
 588:lcd.c         **** 	while(n--)result*=m;    
 3167              		.loc 1 588 6
 3168 0098 8547     		li	a5,1
 3169 009a 6DBF     		j	.L140
 3170              	.LVL348:
 3171              	.L141:
 3172              	.LBE357:
 3173              	.LBE359:
 3174 009c 0549     		li	s2,1
 3175              	.LVL349:
 3176              	.L138:
 617:lcd.c         **** 	}
 3177              		.loc 1 617 4 is_stmt 1
 3178 009e 5287     		mv	a4,s4
 3179 00a0 8146     		li	a3,0
 3180 00a2 13060603 		addi	a2,a2,48
 3181              	.LVL350:
 3182 00a6 F1BF     		j	.L144
 3183              		.cfi_endproc
 3184              	.LFE26:
 3186              		.globl	__mulsf3
GAS LISTING C:\Users\nesre\AppData\Local\Temp\ccPTohGt.s 			page 75


 3187              		.globl	__fixunssfsi
 3188              		.section	.text.LCD_ShowNum1,"ax",@progbits
 3189              		.align	1
 3190              		.globl	LCD_ShowNum1
 3192              	LCD_ShowNum1:
 3193              	.LFB27:
 620:lcd.c         **** 
 621:lcd.c         **** 
 622:lcd.c         **** /*
 623:lcd.c         ****   Function description: display float number with 2 decimal places
 624:lcd.c         ****   Entry data: x, y:  start point coordinates
 625:lcd.c         ****                num:  float number to display
 626:lcd.c         ****                len:  number of digits to display
 627:lcd.c         ****   Return value: None
 628:lcd.c         **** */
 629:lcd.c         **** void LCD_ShowNum1(u16 x,u16 y,float num,u8 len,u16 color)
 630:lcd.c         **** {         	
 3194              		.loc 1 630 1
 3195              		.cfi_startproc
 3196              	.LVL351:
 631:lcd.c         **** 	u8 t,temp;
 3197              		.loc 1 631 2
 632:lcd.c         **** 	// u8 enshow=0;
 633:lcd.c         **** 	u16 num1;
 3198              		.loc 1 633 2
 634:lcd.c         **** 	num1=num*100;
 3199              		.loc 1 634 2
 630:lcd.c         **** 	u8 t,temp;
 3200              		.loc 1 630 1 is_stmt 0
 3201 0000 7971     		addi	sp,sp,-48
 3202              	.LCFI51:
 3203              		.cfi_def_cfa_offset 48
 3204              		.loc 1 634 10
 3205 0002 B7070000 		lui	a5,%hi(.LC1)
 630:lcd.c         **** 	u8 t,temp;
 3206              		.loc 1 630 1
 3207 0006 52CC     		sw	s4,24(sp)
 3208              		.cfi_offset 20, -24
 3209 0008 2E8A     		mv	s4,a1
 3210              		.loc 1 634 10
 3211 000a 83A50700 		lw	a1,%lo(.LC1)(a5)
 3212              	.LVL352:
 630:lcd.c         **** 	u8 t,temp;
 3213              		.loc 1 630 1
 3214 000e 4ECE     		sw	s3,28(sp)
 3215              		.cfi_offset 19, -20
 3216 0010 AA89     		mv	s3,a0
 3217              		.loc 1 634 10
 3218 0012 3285     		mv	a0,a2
 3219              	.LVL353:
 630:lcd.c         **** 	u8 t,temp;
 3220              		.loc 1 630 1
 3221 0014 06D6     		sw	ra,44(sp)
 3222 0016 22D4     		sw	s0,40(sp)
 3223 0018 26D2     		sw	s1,36(sp)
 3224 001a 56CA     		sw	s5,20(sp)
 3225 001c 5AC8     		sw	s6,16(sp)
GAS LISTING C:\Users\nesre\AppData\Local\Temp\ccPTohGt.s 			page 76


 3226 001e 5EC6     		sw	s7,12(sp)
 3227 0020 62C4     		sw	s8,8(sp)
 3228              		.cfi_offset 1, -4
 3229              		.cfi_offset 8, -8
 3230              		.cfi_offset 9, -12
 3231              		.cfi_offset 21, -28
 3232              		.cfi_offset 22, -32
 3233              		.cfi_offset 23, -36
 3234              		.cfi_offset 24, -40
 3235 0022 B684     		mv	s1,a3
 3236 0024 BA8A     		mv	s5,a4
 3237 0026 4AD0     		sw	s2,32(sp)
 3238              		.cfi_offset 18, -16
 3239              		.loc 1 634 10
 3240 0028 97000000 		call	__mulsf3
 3240      E7800000 
 3241              	.LVL354:
 3242              		.loc 1 634 6
 3243 0030 97000000 		call	__fixunssfsi
 3243      E7800000 
 3244              	.LVL355:
 3245 0038 AA8B     		mv	s7,a0
 3246              	.LVL356:
 635:lcd.c         **** 	for(t=0;t<len;t++)
 3247              		.loc 1 635 2 is_stmt 1
 3248              		.loc 1 635 7 is_stmt 0
 3249 003a 0144     		li	s0,0
 3250              	.LBB360:
 3251              	.LBB361:
 589:lcd.c         **** 	return result;
 3252              		.loc 1 589 7
 3253 003c 130CF00F 		li	s8,255
 589:lcd.c         **** 	return result;
 3254              		.loc 1 589 18
 3255 0040 294B     		li	s6,10
 3256              	.LVL357:
 3257              	.L146:
 3258              	.LBE361:
 3259              	.LBE360:
 3260              		.loc 1 635 2 discriminator 1
 3261 0042 636E9400 		bgtu	s1,s0,.L150
 636:lcd.c         **** 	{
 637:lcd.c         **** 		temp=(num1/mypow(10,len-t-1))%10;
 638:lcd.c         **** 		if(t==(len-2))
 639:lcd.c         **** 		{
 640:lcd.c         **** 			LCD_ShowChar(x+8*(len-2),y,'.',0,color);
 641:lcd.c         **** 			t++;
 642:lcd.c         **** 			len+=1;
 643:lcd.c         **** 		}
 644:lcd.c         **** 	 	LCD_ShowChar(x+8*t,y,temp+48,0,color);
 645:lcd.c         **** 	}
 646:lcd.c         **** }
 3262              		.loc 1 646 1
 3263 0046 B250     		lw	ra,44(sp)
 3264              		.cfi_remember_state
 3265              		.cfi_restore 1
 3266 0048 2254     		lw	s0,40(sp)
GAS LISTING C:\Users\nesre\AppData\Local\Temp\ccPTohGt.s 			page 77


 3267              		.cfi_restore 8
 3268              	.LVL358:
 3269 004a 9254     		lw	s1,36(sp)
 3270              		.cfi_restore 9
 3271              	.LVL359:
 3272 004c 0259     		lw	s2,32(sp)
 3273              		.cfi_restore 18
 3274 004e F249     		lw	s3,28(sp)
 3275              		.cfi_restore 19
 3276              	.LVL360:
 3277 0050 624A     		lw	s4,24(sp)
 3278              		.cfi_restore 20
 3279              	.LVL361:
 3280 0052 D24A     		lw	s5,20(sp)
 3281              		.cfi_restore 21
 3282              	.LVL362:
 3283 0054 424B     		lw	s6,16(sp)
 3284              		.cfi_restore 22
 3285 0056 B24B     		lw	s7,12(sp)
 3286              		.cfi_restore 23
 3287              	.LVL363:
 3288 0058 224C     		lw	s8,8(sp)
 3289              		.cfi_restore 24
 3290 005a 4561     		addi	sp,sp,48
 3291              	.LCFI52:
 3292              		.cfi_def_cfa_offset 0
 3293 005c 8280     		jr	ra
 3294              	.LVL364:
 3295              	.L150:
 3296              	.LCFI53:
 3297              		.cfi_restore_state
 637:lcd.c         **** 		if(t==(len-2))
 3298              		.loc 1 637 3 is_stmt 1
 637:lcd.c         **** 		if(t==(len-2))
 3299              		.loc 1 637 14 is_stmt 0
 3300 005e 9386F4FF 		addi	a3,s1,-1
 3301 0062 33878640 		sub	a4,a3,s0
 3302 0066 1377F70F 		andi	a4,a4,0xff
 3303              	.LVL365:
 3304              	.LBB364:
 3305              	.LBB362:
 588:lcd.c         **** 	while(n--)result*=m;    
 3306              		.loc 1 588 2 is_stmt 1
 589:lcd.c         **** 	return result;
 3307              		.loc 1 589 2
 588:lcd.c         **** 	while(n--)result*=m;    
 3308              		.loc 1 588 6 is_stmt 0
 3309 006a 8547     		li	a5,1
 3310              	.LVL366:
 3311              	.L147:
 589:lcd.c         **** 	return result;
 3312              		.loc 1 589 9
 3313 006c 7D17     		addi	a4,a4,-1
 3314              	.LVL367:
 3315 006e 1377F70F 		andi	a4,a4,0xff
 3316              	.LVL368:
 589:lcd.c         **** 	return result;
GAS LISTING C:\Users\nesre\AppData\Local\Temp\ccPTohGt.s 			page 78


 3317              		.loc 1 589 7
 3318 0072 631A8705 		bne	a4,s8,.L148
 590:lcd.c         **** }
 3319              		.loc 1 590 2 is_stmt 1
 3320              	.LVL369:
 3321              	.LBE362:
 3322              	.LBE364:
 637:lcd.c         **** 		if(t==(len-2))
 3323              		.loc 1 637 13 is_stmt 0
 3324 0076 B3D7FB02 		divu	a5,s7,a5
 638:lcd.c         **** 		{
 3325              		.loc 1 638 13
 3326 007a 1385E4FF 		addi	a0,s1,-2
 637:lcd.c         **** 		if(t==(len-2))
 3327              		.loc 1 637 7
 3328 007e 33F96703 		remu	s2,a5,s6
 3329              	.LVL370:
 638:lcd.c         **** 		{
 3330              		.loc 1 638 3 is_stmt 1
 638:lcd.c         **** 		{
 3331              		.loc 1 638 5 is_stmt 0
 3332 0082 6312A402 		bne	s0,a0,.L149
 640:lcd.c         **** 			t++;
 3333              		.loc 1 640 20
 3334 0086 0E05     		slli	a0,a0,3
 3335 0088 13F4F60F 		andi	s0,a3,0xff
 3336              	.LVL371:
 640:lcd.c         **** 			t++;
 3337              		.loc 1 640 4 is_stmt 1
 3338 008c 5687     		mv	a4,s5
 3339 008e 8146     		li	a3,0
 3340 0090 1306E002 		li	a2,46
 3341 0094 D285     		mv	a1,s4
 3342 0096 4E95     		add	a0,a0,s3
 642:lcd.c         **** 		}
 3343              		.loc 1 642 7 is_stmt 0
 3344 0098 8504     		addi	s1,s1,1
 3345              	.LVL372:
 640:lcd.c         **** 			t++;
 3346              		.loc 1 640 4
 3347 009a 97000000 		call	LCD_ShowChar
 3347      E7800000 
 3348              	.LVL373:
 641:lcd.c         **** 			len+=1;
 3349              		.loc 1 641 4 is_stmt 1
 642:lcd.c         **** 		}
 3350              		.loc 1 642 4
 642:lcd.c         **** 		}
 3351              		.loc 1 642 7 is_stmt 0
 3352 00a2 93F4F40F 		andi	s1,s1,0xff
 3353              	.LVL374:
 3354              	.L149:
 644:lcd.c         **** 	}
 3355              		.loc 1 644 4 is_stmt 1 discriminator 2
 644:lcd.c         **** 	}
 3356              		.loc 1 644 20 is_stmt 0 discriminator 2
 3357 00a6 13153400 		slli	a0,s0,3
GAS LISTING C:\Users\nesre\AppData\Local\Temp\ccPTohGt.s 			page 79


 644:lcd.c         **** 	}
 3358              		.loc 1 644 4 discriminator 2
 3359 00aa 5687     		mv	a4,s5
 3360 00ac 8146     		li	a3,0
 3361 00ae 13060903 		addi	a2,s2,48
 3362 00b2 D285     		mv	a1,s4
 3363 00b4 4E95     		add	a0,a0,s3
 635:lcd.c         **** 	{
 3364              		.loc 1 635 17 discriminator 2
 3365 00b6 0504     		addi	s0,s0,1
 3366              	.LVL375:
 644:lcd.c         **** 	}
 3367              		.loc 1 644 4 discriminator 2
 3368 00b8 97000000 		call	LCD_ShowChar
 3368      E7800000 
 3369              	.LVL376:
 635:lcd.c         **** 	{
 3370              		.loc 1 635 17 discriminator 2
 3371 00c0 1374F40F 		andi	s0,s0,0xff
 3372              	.LVL377:
 3373 00c4 BDBF     		j	.L146
 3374              	.LVL378:
 3375              	.L148:
 3376              	.LBB365:
 3377              	.LBB363:
 589:lcd.c         **** 	return result;
 3378              		.loc 1 589 12 is_stmt 1
 589:lcd.c         **** 	return result;
 3379              		.loc 1 589 18 is_stmt 0
 3380 00c6 B3876703 		mul	a5,a5,s6
 3381              	.LVL379:
 3382 00ca 4DB7     		j	.L147
 3383              	.LBE363:
 3384              	.LBE365:
 3385              		.cfi_endproc
 3386              	.LFE27:
 3388              		.section	.text.LCD_ShowPicture,"ax",@progbits
 3389              		.align	1
 3390              		.globl	LCD_ShowPicture
 3392              	LCD_ShowPicture:
 3393              	.LFB28:
 647:lcd.c         **** 
 648:lcd.c         **** 
 649:lcd.c         **** /*
 650:lcd.c         ****   Function description: display the image 
 651:lcd.c         ****   Entry data: x1, y1:  start coordinates
 652:lcd.c         ****               x2, y2:  end coordinates
 653:lcd.c         ****               *image:  pointer to image buffer
 654:lcd.c         ****   Return value: None
 655:lcd.c         ****   Note: image buffere contains 16-bit pixel colors
 656:lcd.c         ****         and its size must be (x2-x1+1) * (y2-y1+1) * 2
 657:lcd.c         ****   */
 658:lcd.c         **** void LCD_ShowPicture(u16 x1, u16 y1, u16 x2, u16 y2, u8 *image)
 659:lcd.c         **** {
 3394              		.loc 1 659 1 is_stmt 1
 3395              		.cfi_startproc
 3396              	.LVL380:
GAS LISTING C:\Users\nesre\AppData\Local\Temp\ccPTohGt.s 			page 80


 660:lcd.c         **** 	int i;
 3397              		.loc 1 660 2
 661:lcd.c         **** 	int size = (x2-x1+1) * (y2-y1+1) * 2;
 3398              		.loc 1 661 2
 659:lcd.c         **** 	int i;
 3399              		.loc 1 659 1 is_stmt 0
 3400 0000 4111     		addi	sp,sp,-16
 3401              	.LCFI54:
 3402              		.cfi_def_cfa_offset 16
 3403 0002 22C4     		sw	s0,8(sp)
 3404              		.loc 1 661 28
 3405 0004 B387B640 		sub	a5,a3,a1
 3406              		.cfi_offset 8, -8
 3407              		.loc 1 661 16
 3408 0008 3304A640 		sub	s0,a2,a0
 3409              		.loc 1 661 31
 3410 000c 8507     		addi	a5,a5,1
 3411              		.loc 1 661 35
 3412 000e 0504     		addi	s0,s0,1
 3413 0010 3304F402 		mul	s0,s0,a5
 659:lcd.c         **** 	int i;
 3414              		.loc 1 659 1
 3415 0014 26C2     		sw	s1,4(sp)
 3416 0016 4AC0     		sw	s2,0(sp)
 3417 0018 06C6     		sw	ra,12(sp)
 3418              		.cfi_offset 9, -12
 3419              		.cfi_offset 18, -16
 3420              		.cfi_offset 1, -4
 659:lcd.c         **** 	int i;
 3421              		.loc 1 659 1
 3422 001a 3A89     		mv	s2,a4
 662:lcd.c         **** 	LCD_Address_Set(x1,y1,x2,y2);
 663:lcd.c         **** 	for(i=0;i<size;i++)
 3423              		.loc 1 663 7
 3424 001c 8144     		li	s1,0
 662:lcd.c         **** 	LCD_Address_Set(x1,y1,x2,y2);
 3425              		.loc 1 662 2
 3426 001e 97000000 		call	LCD_Address_Set
 3426      E7800000 
 3427              	.LVL381:
 661:lcd.c         **** 	LCD_Address_Set(x1,y1,x2,y2);
 3428              		.loc 1 661 35
 3429 0026 0604     		slli	s0,s0,1
 3430              	.LVL382:
 662:lcd.c         **** 	LCD_Address_Set(x1,y1,x2,y2);
 3431              		.loc 1 662 2 is_stmt 1
 3432              		.loc 1 663 2
 3433              	.L153:
 3434              		.loc 1 663 2 is_stmt 0 discriminator 1
 3435 0028 63C88400 		blt	s1,s0,.L154
 664:lcd.c         **** 	{ 	
 665:lcd.c         **** 		LCD_WR_DATA8(image[i]);
 666:lcd.c         **** 	}			
 667:lcd.c         **** }
 3436              		.loc 1 667 1
 3437 002c B240     		lw	ra,12(sp)
 3438              		.cfi_remember_state
GAS LISTING C:\Users\nesre\AppData\Local\Temp\ccPTohGt.s 			page 81


 3439              		.cfi_restore 1
 3440 002e 2244     		lw	s0,8(sp)
 3441              		.cfi_restore 8
 3442              	.LVL383:
 3443 0030 9244     		lw	s1,4(sp)
 3444              		.cfi_restore 9
 3445              	.LVL384:
 3446 0032 0249     		lw	s2,0(sp)
 3447              		.cfi_restore 18
 3448              	.LVL385:
 3449 0034 4101     		addi	sp,sp,16
 3450              	.LCFI55:
 3451              		.cfi_def_cfa_offset 0
 3452 0036 8280     		jr	ra
 3453              	.LVL386:
 3454              	.L154:
 3455              	.LCFI56:
 3456              		.cfi_restore_state
 665:lcd.c         **** 	}			
 3457              		.loc 1 665 3 is_stmt 1 discriminator 3
 3458 0038 B3079900 		add	a5,s2,s1
 3459 003c 03C50700 		lbu	a0,0(a5)
 663:lcd.c         **** 	{ 	
 3460              		.loc 1 663 18 is_stmt 0 discriminator 3
 3461 0040 8504     		addi	s1,s1,1
 3462              	.LVL387:
 665:lcd.c         **** 	}			
 3463              		.loc 1 665 3 discriminator 3
 3464 0042 97000000 		call	LCD_WR_DATA8
 3464      E7800000 
 3465              	.LVL388:
 3466 004a F9BF     		j	.L153
 3467              		.cfi_endproc
 3468              	.LFE28:
 3470              		.globl	queue
 3471              		.globl	w
 3472              		.globl	r
 3473              		.globl	lcd_conf
 3474              		.comm	BACK_COLOR,4,4
 3475              		.globl	Hzk16
 3476              		.globl	asc2_1608
 3477              		.globl	Hzk32
 3478              		.section	.bss.queue,"aw",@nobits
 3479              		.align	2
 3480              		.set	.LANCHOR2,. + 0
 3483              	queue:
 3484 0000 00000000 		.zero	1024
 3484      00000000 
 3484      00000000 
 3484      00000000 
 3484      00000000 
 3485              		.section	.data.Hzk16,"aw"
 3486              		.align	2
 3487              		.set	.LANCHOR4,. + 0
 3490              	Hzk16:
 3491 0000 80       		.byte	-128
 3492 0001 00       		.byte	0
GAS LISTING C:\Users\nesre\AppData\Local\Temp\ccPTohGt.s 			page 82


 3493 0002 80       		.byte	-128
 3494 0003 00       		.byte	0
 3495 0004 80       		.byte	-128
 3496 0005 00       		.byte	0
 3497 0006 80       		.byte	-128
 3498 0007 00       		.byte	0
 3499 0008 FC       		.byte	-4
 3500 0009 1F       		.byte	31
 3501 000a 84       		.byte	-124
 3502 000b 10       		.byte	16
 3503 000c 84       		.byte	-124
 3504 000d 10       		.byte	16
 3505 000e 84       		.byte	-124
 3506 000f 10       		.byte	16
 3507 0010 84       		.byte	-124
 3508 0011 10       		.byte	16
 3509 0012 84       		.byte	-124
 3510 0013 10       		.byte	16
 3511 0014 FC       		.byte	-4
 3512 0015 1F       		.byte	31
 3513 0016 84       		.byte	-124
 3514 0017 10       		.byte	16
 3515 0018 80       		.byte	-128
 3516 0019 00       		.byte	0
 3517 001a 80       		.byte	-128
 3518 001b 00       		.byte	0
 3519 001c 80       		.byte	-128
 3520 001d 00       		.byte	0
 3521 001e 80       		.byte	-128
 3522 001f 00       		.byte	0
 3523 0020 F8       		.byte	-8
 3524 0021 0F       		.byte	15
 3525 0022 08       		.byte	8
 3526 0023 08       		.byte	8
 3527 0024 F8       		.byte	-8
 3528 0025 0F       		.byte	15
 3529 0026 08       		.byte	8
 3530 0027 08       		.byte	8
 3531 0028 F8       		.byte	-8
 3532 0029 0F       		.byte	15
 3533 002a 80       		.byte	-128
 3534 002b 00       		.byte	0
 3535 002c FF       		.byte	-1
 3536 002d 7F       		.byte	127
 3537 002e 00       		.byte	0
 3538 002f 00       		.byte	0
 3539 0030 F8       		.byte	-8
 3540 0031 0F       		.byte	15
 3541 0032 08       		.byte	8
 3542 0033 08       		.byte	8
 3543 0034 08       		.byte	8
 3544 0035 08       		.byte	8
 3545 0036 F8       		.byte	-8
 3546 0037 0F       		.byte	15
 3547 0038 80       		.byte	-128
 3548 0039 00       		.byte	0
 3549 003a 84       		.byte	-124
GAS LISTING C:\Users\nesre\AppData\Local\Temp\ccPTohGt.s 			page 83


 3550 003b 10       		.byte	16
 3551 003c A2       		.byte	-94
 3552 003d 20       		.byte	32
 3553 003e 40       		.byte	64
 3554 003f 00       		.byte	0
 3555 0040 00       		.byte	0
 3556 0041 00       		.byte	0
 3557 0042 FE       		.byte	-2
 3558 0043 3F       		.byte	63
 3559 0044 02       		.byte	2
 3560 0045 20       		.byte	32
 3561 0046 F2       		.byte	-14
 3562 0047 27       		.byte	39
 3563 0048 02       		.byte	2
 3564 0049 20       		.byte	32
 3565 004a 02       		.byte	2
 3566 004b 20       		.byte	32
 3567 004c FA       		.byte	-6
 3568 004d 2F       		.byte	47
 3569 004e 22       		.byte	34
 3570 004f 21       		.byte	33
 3571 0050 22       		.byte	34
 3572 0051 21       		.byte	33
 3573 0052 22       		.byte	34
 3574 0053 21       		.byte	33
 3575 0054 12       		.byte	18
 3576 0055 29       		.byte	41
 3577 0056 12       		.byte	18
 3578 0057 29       		.byte	41
 3579 0058 0A       		.byte	10
 3580 0059 2E       		.byte	46
 3581 005a 02       		.byte	2
 3582 005b 20       		.byte	32
 3583 005c FE       		.byte	-2
 3584 005d 3F       		.byte	63
 3585 005e 02       		.byte	2
 3586 005f 20       		.byte	32
 3587 0060 80       		.byte	-128
 3588 0061 00       		.byte	0
 3589 0062 80       		.byte	-128
 3590 0063 00       		.byte	0
 3591 0064 80       		.byte	-128
 3592 0065 00       		.byte	0
 3593 0066 FC       		.byte	-4
 3594 0067 1F       		.byte	31
 3595 0068 84       		.byte	-124
 3596 0069 10       		.byte	16
 3597 006a 84       		.byte	-124
 3598 006b 10       		.byte	16
 3599 006c 84       		.byte	-124
 3600 006d 10       		.byte	16
 3601 006e FC       		.byte	-4
 3602 006f 1F       		.byte	31
 3603 0070 84       		.byte	-124
 3604 0071 10       		.byte	16
 3605 0072 84       		.byte	-124
 3606 0073 10       		.byte	16
GAS LISTING C:\Users\nesre\AppData\Local\Temp\ccPTohGt.s 			page 84


 3607 0074 84       		.byte	-124
 3608 0075 10       		.byte	16
 3609 0076 FC       		.byte	-4
 3610 0077 1F       		.byte	31
 3611 0078 84       		.byte	-124
 3612 0079 50       		.byte	80
 3613 007a 80       		.byte	-128
 3614 007b 40       		.byte	64
 3615 007c 80       		.byte	-128
 3616 007d 40       		.byte	64
 3617 007e 00       		.byte	0
 3618 007f 7F       		.byte	127
 3619 0080 00       		.byte	0
 3620 0081 00       		.byte	0
 3621 0082 FE       		.byte	-2
 3622 0083 1F       		.byte	31
 3623 0084 00       		.byte	0
 3624 0085 08       		.byte	8
 3625 0086 00       		.byte	0
 3626 0087 04       		.byte	4
 3627 0088 00       		.byte	0
 3628 0089 02       		.byte	2
 3629 008a 80       		.byte	-128
 3630 008b 01       		.byte	1
 3631 008c 80       		.byte	-128
 3632 008d 00       		.byte	0
 3633 008e FF       		.byte	-1
 3634 008f 7F       		.byte	127
 3635 0090 80       		.byte	-128
 3636 0091 00       		.byte	0
 3637 0092 80       		.byte	-128
 3638 0093 00       		.byte	0
 3639 0094 80       		.byte	-128
 3640 0095 00       		.byte	0
 3641 0096 80       		.byte	-128
 3642 0097 00       		.byte	0
 3643 0098 80       		.byte	-128
 3644 0099 00       		.byte	0
 3645 009a 80       		.byte	-128
 3646 009b 00       		.byte	0
 3647 009c A0       		.byte	-96
 3648 009d 00       		.byte	0
 3649 009e 40       		.byte	64
 3650 009f 00       		.byte	0
 3651 00a0 10       		.byte	16
 3652 00a1 08       		.byte	8
 3653 00a2 B8       		.byte	-72
 3654 00a3 08       		.byte	8
 3655 00a4 0F       		.byte	15
 3656 00a5 09       		.byte	9
 3657 00a6 08       		.byte	8
 3658 00a7 09       		.byte	9
 3659 00a8 08       		.byte	8
 3660 00a9 08       		.byte	8
 3661 00aa BF       		.byte	-65
 3662 00ab 08       		.byte	8
 3663 00ac 08       		.byte	8
GAS LISTING C:\Users\nesre\AppData\Local\Temp\ccPTohGt.s 			page 85


 3664 00ad 09       		.byte	9
 3665 00ae 1C       		.byte	28
 3666 00af 09       		.byte	9
 3667 00b0 2C       		.byte	44
 3668 00b1 08       		.byte	8
 3669 00b2 0A       		.byte	10
 3670 00b3 78       		.byte	120
 3671 00b4 CA       		.byte	-54
 3672 00b5 0F       		.byte	15
 3673 00b6 09       		.byte	9
 3674 00b7 08       		.byte	8
 3675 00b8 08       		.byte	8
 3676 00b9 08       		.byte	8
 3677 00ba 08       		.byte	8
 3678 00bb 08       		.byte	8
 3679 00bc 08       		.byte	8
 3680 00bd 08       		.byte	8
 3681 00be 08       		.byte	8
 3682 00bf 08       		.byte	8
 3683 00c0 08       		.byte	8
 3684 00c1 04       		.byte	4
 3685 00c2 08       		.byte	8
 3686 00c3 04       		.byte	4
 3687 00c4 08       		.byte	8
 3688 00c5 04       		.byte	4
 3689 00c6 C8       		.byte	-56
 3690 00c7 7F       		.byte	127
 3691 00c8 3F       		.byte	63
 3692 00c9 04       		.byte	4
 3693 00ca 08       		.byte	8
 3694 00cb 04       		.byte	4
 3695 00cc 08       		.byte	8
 3696 00cd 04       		.byte	4
 3697 00ce A8       		.byte	-88
 3698 00cf 3F       		.byte	63
 3699 00d0 18       		.byte	24
 3700 00d1 21       		.byte	33
 3701 00d2 0C       		.byte	12
 3702 00d3 11       		.byte	17
 3703 00d4 0B       		.byte	11
 3704 00d5 12       		.byte	18
 3705 00d6 08       		.byte	8
 3706 00d7 0A       		.byte	10
 3707 00d8 08       		.byte	8
 3708 00d9 04       		.byte	4
 3709 00da 08       		.byte	8
 3710 00db 0A       		.byte	10
 3711 00dc 8A       		.byte	-118
 3712 00dd 11       		.byte	17
 3713 00de 64       		.byte	100
 3714 00df 60       		.byte	96
 3715              		.section	.data.Hzk32,"aw"
 3716              		.align	2
 3717              		.set	.LANCHOR5,. + 0
 3720              	Hzk32:
 3721 0000 00       		.byte	0
 3722 0001 00       		.byte	0
GAS LISTING C:\Users\nesre\AppData\Local\Temp\ccPTohGt.s 			page 86


 3723 0002 00       		.byte	0
 3724 0003 00       		.byte	0
 3725 0004 00       		.byte	0
 3726 0005 00       		.byte	0
 3727 0006 00       		.byte	0
 3728 0007 00       		.byte	0
 3729 0008 00       		.byte	0
 3730 0009 80       		.byte	-128
 3731 000a 00       		.byte	0
 3732 000b 00       		.byte	0
 3733 000c 00       		.byte	0
 3734 000d 80       		.byte	-128
 3735 000e 01       		.byte	1
 3736 000f 00       		.byte	0
 3737 0010 00       		.byte	0
 3738 0011 80       		.byte	-128
 3739 0012 01       		.byte	1
 3740 0013 00       		.byte	0
 3741 0014 00       		.byte	0
 3742 0015 80       		.byte	-128
 3743 0016 01       		.byte	1
 3744 0017 00       		.byte	0
 3745 0018 00       		.byte	0
 3746 0019 80       		.byte	-128
 3747 001a 01       		.byte	1
 3748 001b 00       		.byte	0
 3749 001c 00       		.byte	0
 3750 001d 80       		.byte	-128
 3751 001e 01       		.byte	1
 3752 001f 00       		.byte	0
 3753 0020 10       		.byte	16
 3754 0021 80       		.byte	-128
 3755 0022 01       		.byte	1
 3756 0023 0C       		.byte	12
 3757 0024 F0       		.byte	-16
 3758 0025 FF       		.byte	-1
 3759 0026 FF       		.byte	-1
 3760 0027 0F       		.byte	15
 3761 0028 30       		.byte	48
 3762 0029 80       		.byte	-128
 3763 002a 01       		.byte	1
 3764 002b 04       		.byte	4
 3765 002c 30       		.byte	48
 3766 002d 80       		.byte	-128
 3767 002e 01       		.byte	1
 3768 002f 04       		.byte	4
 3769 0030 30       		.byte	48
 3770 0031 80       		.byte	-128
 3771 0032 01       		.byte	1
 3772 0033 04       		.byte	4
 3773 0034 30       		.byte	48
 3774 0035 80       		.byte	-128
 3775 0036 01       		.byte	1
 3776 0037 04       		.byte	4
 3777 0038 30       		.byte	48
 3778 0039 80       		.byte	-128
 3779 003a 01       		.byte	1
GAS LISTING C:\Users\nesre\AppData\Local\Temp\ccPTohGt.s 			page 87


 3780 003b 04       		.byte	4
 3781 003c 30       		.byte	48
 3782 003d 80       		.byte	-128
 3783 003e 01       		.byte	1
 3784 003f 04       		.byte	4
 3785 0040 30       		.byte	48
 3786 0041 80       		.byte	-128
 3787 0042 01       		.byte	1
 3788 0043 04       		.byte	4
 3789 0044 30       		.byte	48
 3790 0045 80       		.byte	-128
 3791 0046 01       		.byte	1
 3792 0047 04       		.byte	4
 3793 0048 F0       		.byte	-16
 3794 0049 FF       		.byte	-1
 3795 004a FF       		.byte	-1
 3796 004b 07       		.byte	7
 3797 004c 30       		.byte	48
 3798 004d 80       		.byte	-128
 3799 004e 01       		.byte	1
 3800 004f 04       		.byte	4
 3801 0050 30       		.byte	48
 3802 0051 80       		.byte	-128
 3803 0052 01       		.byte	1
 3804 0053 04       		.byte	4
 3805 0054 00       		.byte	0
 3806 0055 80       		.byte	-128
 3807 0056 01       		.byte	1
 3808 0057 00       		.byte	0
 3809 0058 00       		.byte	0
 3810 0059 80       		.byte	-128
 3811 005a 01       		.byte	1
 3812 005b 00       		.byte	0
 3813 005c 00       		.byte	0
 3814 005d 80       		.byte	-128
 3815 005e 01       		.byte	1
 3816 005f 00       		.byte	0
 3817 0060 00       		.byte	0
 3818 0061 80       		.byte	-128
 3819 0062 01       		.byte	1
 3820 0063 00       		.byte	0
 3821 0064 00       		.byte	0
 3822 0065 80       		.byte	-128
 3823 0066 01       		.byte	1
 3824 0067 00       		.byte	0
 3825 0068 00       		.byte	0
 3826 0069 80       		.byte	-128
 3827 006a 01       		.byte	1
 3828 006b 00       		.byte	0
 3829 006c 00       		.byte	0
 3830 006d 80       		.byte	-128
 3831 006e 01       		.byte	1
 3832 006f 00       		.byte	0
 3833 0070 00       		.byte	0
 3834 0071 80       		.byte	-128
 3835 0072 01       		.byte	1
 3836 0073 00       		.byte	0
GAS LISTING C:\Users\nesre\AppData\Local\Temp\ccPTohGt.s 			page 88


 3837 0074 00       		.byte	0
 3838 0075 80       		.byte	-128
 3839 0076 01       		.byte	1
 3840 0077 00       		.byte	0
 3841 0078 00       		.byte	0
 3842 0079 80       		.byte	-128
 3843 007a 00       		.byte	0
 3844 007b 00       		.byte	0
 3845 007c 00       		.byte	0
 3846 007d 00       		.byte	0
 3847 007e 00       		.byte	0
 3848 007f 00       		.byte	0
 3849 0080 00       		.byte	0
 3850 0081 00       		.byte	0
 3851 0082 00       		.byte	0
 3852 0083 00       		.byte	0
 3853 0084 00       		.byte	0
 3854 0085 00       		.byte	0
 3855 0086 00       		.byte	0
 3856 0087 00       		.byte	0
 3857 0088 00       		.byte	0
 3858 0089 00       		.byte	0
 3859 008a 00       		.byte	0
 3860 008b 00       		.byte	0
 3861 008c 00       		.byte	0
 3862 008d 01       		.byte	1
 3863 008e 80       		.byte	-128
 3864 008f 01       		.byte	1
 3865 0090 00       		.byte	0
 3866 0091 FF       		.byte	-1
 3867 0092 FF       		.byte	-1
 3868 0093 01       		.byte	1
 3869 0094 00       		.byte	0
 3870 0095 03       		.byte	3
 3871 0096 80       		.byte	-128
 3872 0097 01       		.byte	1
 3873 0098 00       		.byte	0
 3874 0099 03       		.byte	3
 3875 009a 80       		.byte	-128
 3876 009b 01       		.byte	1
 3877 009c 00       		.byte	0
 3878 009d FF       		.byte	-1
 3879 009e FF       		.byte	-1
 3880 009f 01       		.byte	1
 3881 00a0 00       		.byte	0
 3882 00a1 03       		.byte	3
 3883 00a2 80       		.byte	-128
 3884 00a3 01       		.byte	1
 3885 00a4 00       		.byte	0
 3886 00a5 03       		.byte	3
 3887 00a6 80       		.byte	-128
 3888 00a7 01       		.byte	1
 3889 00a8 00       		.byte	0
 3890 00a9 FF       		.byte	-1
 3891 00aa FF       		.byte	-1
 3892 00ab 01       		.byte	1
 3893 00ac 00       		.byte	0
GAS LISTING C:\Users\nesre\AppData\Local\Temp\ccPTohGt.s 			page 89


 3894 00ad 81       		.byte	-127
 3895 00ae 81       		.byte	-127
 3896 00af 00       		.byte	0
 3897 00b0 00       		.byte	0
 3898 00b1 00       		.byte	0
 3899 00b2 03       		.byte	3
 3900 00b3 00       		.byte	0
 3901 00b4 00       		.byte	0
 3902 00b5 00       		.byte	0
 3903 00b6 03       		.byte	3
 3904 00b7 1C       		.byte	28
 3905 00b8 FC       		.byte	-4
 3906 00b9 FF       		.byte	-1
 3907 00ba FF       		.byte	-1
 3908 00bb 3F       		.byte	63
 3909 00bc 00       		.byte	0
 3910 00bd 00       		.byte	0
 3911 00be 40       		.byte	64
 3912 00bf 00       		.byte	0
 3913 00c0 00       		.byte	0
 3914 00c1 03       		.byte	3
 3915 00c2 C0       		.byte	-64
 3916 00c3 01       		.byte	1
 3917 00c4 00       		.byte	0
 3918 00c5 FF       		.byte	-1
 3919 00c6 FF       		.byte	-1
 3920 00c7 01       		.byte	1
 3921 00c8 00       		.byte	0
 3922 00c9 03       		.byte	3
 3923 00ca C0       		.byte	-64
 3924 00cb 00       		.byte	0
 3925 00cc 00       		.byte	0
 3926 00cd 03       		.byte	3
 3927 00ce C0       		.byte	-64
 3928 00cf 00       		.byte	0
 3929 00d0 00       		.byte	0
 3930 00d1 03       		.byte	3
 3931 00d2 C0       		.byte	-64
 3932 00d3 00       		.byte	0
 3933 00d4 00       		.byte	0
 3934 00d5 FF       		.byte	-1
 3935 00d6 FF       		.byte	-1
 3936 00d7 00       		.byte	0
 3937 00d8 00       		.byte	0
 3938 00d9 01       		.byte	1
 3939 00da 41       		.byte	65
 3940 00db 00       		.byte	0
 3941 00dc 00       		.byte	0
 3942 00dd 04       		.byte	4
 3943 00de 01       		.byte	1
 3944 00df 00       		.byte	0
 3945 00e0 00       		.byte	0
 3946 00e1 0E       		.byte	14
 3947 00e2 71       		.byte	113
 3948 00e3 00       		.byte	0
 3949 00e4 00       		.byte	0
 3950 00e5 07       		.byte	7
GAS LISTING C:\Users\nesre\AppData\Local\Temp\ccPTohGt.s 			page 90


 3951 00e6 81       		.byte	-127
 3952 00e7 01       		.byte	1
 3953 00e8 80       		.byte	-128
 3954 00e9 01       		.byte	1
 3955 00ea 01       		.byte	1
 3956 00eb 07       		.byte	7
 3957 00ec 60       		.byte	96
 3958 00ed 00       		.byte	0
 3959 00ee 01       		.byte	1
 3960 00ef 0E       		.byte	14
 3961 00f0 18       		.byte	24
 3962 00f1 98       		.byte	-104
 3963 00f2 01       		.byte	1
 3964 00f3 1C       		.byte	28
 3965 00f4 04       		.byte	4
 3966 00f5 E0       		.byte	-32
 3967 00f6 01       		.byte	1
 3968 00f7 18       		.byte	24
 3969 00f8 00       		.byte	0
 3970 00f9 C0       		.byte	-64
 3971 00fa 00       		.byte	0
 3972 00fb 00       		.byte	0
 3973 00fc 00       		.byte	0
 3974 00fd 00       		.byte	0
 3975 00fe 00       		.byte	0
 3976 00ff 00       		.byte	0
 3977 0100 00       		.byte	0
 3978 0101 00       		.byte	0
 3979 0102 00       		.byte	0
 3980 0103 00       		.byte	0
 3981 0104 00       		.byte	0
 3982 0105 00       		.byte	0
 3983 0106 00       		.byte	0
 3984 0107 00       		.byte	0
 3985 0108 00       		.byte	0
 3986 0109 00       		.byte	0
 3987 010a 00       		.byte	0
 3988 010b 08       		.byte	8
 3989 010c F0       		.byte	-16
 3990 010d FF       		.byte	-1
 3991 010e FF       		.byte	-1
 3992 010f 1F       		.byte	31
 3993 0110 30       		.byte	48
 3994 0111 00       		.byte	0
 3995 0112 00       		.byte	0
 3996 0113 0C       		.byte	12
 3997 0114 30       		.byte	48
 3998 0115 00       		.byte	0
 3999 0116 00       		.byte	0
 4000 0117 0C       		.byte	12
 4001 0118 30       		.byte	48
 4002 0119 00       		.byte	0
 4003 011a 10       		.byte	16
 4004 011b 0C       		.byte	12
 4005 011c 30       		.byte	48
 4006 011d FE       		.byte	-2
 4007 011e 3F       		.byte	63
GAS LISTING C:\Users\nesre\AppData\Local\Temp\ccPTohGt.s 			page 91


 4008 011f 0C       		.byte	12
 4009 0120 30       		.byte	48
 4010 0121 04       		.byte	4
 4011 0122 00       		.byte	0
 4012 0123 0C       		.byte	12
 4013 0124 30       		.byte	48
 4014 0125 00       		.byte	0
 4015 0126 00       		.byte	0
 4016 0127 0C       		.byte	12
 4017 0128 30       		.byte	48
 4018 0129 00       		.byte	0
 4019 012a 00       		.byte	0
 4020 012b 0C       		.byte	12
 4021 012c 30       		.byte	48
 4022 012d 00       		.byte	0
 4023 012e 00       		.byte	0
 4024 012f 0C       		.byte	12
 4025 0130 30       		.byte	48
 4026 0131 00       		.byte	0
 4027 0132 C0       		.byte	-64
 4028 0133 0C       		.byte	12
 4029 0134 F0       		.byte	-16
 4030 0135 FF       		.byte	-1
 4031 0136 FF       		.byte	-1
 4032 0137 0D       		.byte	13
 4033 0138 30       		.byte	48
 4034 0139 30       		.byte	48
 4035 013a 06       		.byte	6
 4036 013b 0E       		.byte	14
 4037 013c 30       		.byte	48
 4038 013d 30       		.byte	48
 4039 013e 06       		.byte	6
 4040 013f 0C       		.byte	12
 4041 0140 30       		.byte	48
 4042 0141 10       		.byte	16
 4043 0142 06       		.byte	6
 4044 0143 0C       		.byte	12
 4045 0144 30       		.byte	48
 4046 0145 10       		.byte	16
 4047 0146 06       		.byte	6
 4048 0147 0C       		.byte	12
 4049 0148 30       		.byte	48
 4050 0149 10       		.byte	16
 4051 014a 06       		.byte	6
 4052 014b 0C       		.byte	12
 4053 014c 30       		.byte	48
 4054 014d 18       		.byte	24
 4055 014e 86       		.byte	-122
 4056 014f 0C       		.byte	12
 4057 0150 30       		.byte	48
 4058 0151 18       		.byte	24
 4059 0152 86       		.byte	-122
 4060 0153 0C       		.byte	12
 4061 0154 30       		.byte	48
 4062 0155 08       		.byte	8
 4063 0156 06       		.byte	6
 4064 0157 0D       		.byte	13
GAS LISTING C:\Users\nesre\AppData\Local\Temp\ccPTohGt.s 			page 92


 4065 0158 30       		.byte	48
 4066 0159 0C       		.byte	12
 4067 015a 86       		.byte	-122
 4068 015b 0D       		.byte	13
 4069 015c 30       		.byte	48
 4070 015d 06       		.byte	6
 4071 015e EE       		.byte	-18
 4072 015f 0F       		.byte	15
 4073 0160 30       		.byte	48
 4074 0161 02       		.byte	2
 4075 0162 FC       		.byte	-4
 4076 0163 0D       		.byte	13
 4077 0164 30       		.byte	48
 4078 0165 01       		.byte	1
 4079 0166 00       		.byte	0
 4080 0167 0C       		.byte	12
 4081 0168 F0       		.byte	-16
 4082 0169 00       		.byte	0
 4083 016a 00       		.byte	0
 4084 016b 0C       		.byte	12
 4085 016c 30       		.byte	48
 4086 016d 00       		.byte	0
 4087 016e 00       		.byte	0
 4088 016f 0C       		.byte	12
 4089 0170 F0       		.byte	-16
 4090 0171 FF       		.byte	-1
 4091 0172 FF       		.byte	-1
 4092 0173 0F       		.byte	15
 4093 0174 30       		.byte	48
 4094 0175 00       		.byte	0
 4095 0176 00       		.byte	0
 4096 0177 0C       		.byte	12
 4097 0178 10       		.byte	16
 4098 0179 00       		.byte	0
 4099 017a 00       		.byte	0
 4100 017b 04       		.byte	4
 4101 017c 00       		.byte	0
 4102 017d 00       		.byte	0
 4103 017e 00       		.byte	0
 4104 017f 00       		.byte	0
 4105 0180 00       		.byte	0
 4106 0181 00       		.byte	0
 4107 0182 00       		.byte	0
 4108 0183 00       		.byte	0
 4109 0184 00       		.byte	0
 4110 0185 00       		.byte	0
 4111 0186 00       		.byte	0
 4112 0187 00       		.byte	0
 4113 0188 00       		.byte	0
 4114 0189 C0       		.byte	-64
 4115 018a 00       		.byte	0
 4116 018b 00       		.byte	0
 4117 018c 00       		.byte	0
 4118 018d C0       		.byte	-64
 4119 018e 01       		.byte	1
 4120 018f 00       		.byte	0
 4121 0190 00       		.byte	0
GAS LISTING C:\Users\nesre\AppData\Local\Temp\ccPTohGt.s 			page 93


 4122 0191 C0       		.byte	-64
 4123 0192 00       		.byte	0
 4124 0193 00       		.byte	0
 4125 0194 00       		.byte	0
 4126 0195 C0       		.byte	-64
 4127 0196 00       		.byte	0
 4128 0197 00       		.byte	0
 4129 0198 00       		.byte	0
 4130 0199 C0       		.byte	-64
 4131 019a 00       		.byte	0
 4132 019b 00       		.byte	0
 4133 019c 00       		.byte	0
 4134 019d C0       		.byte	-64
 4135 019e 00       		.byte	0
 4136 019f 00       		.byte	0
 4137 01a0 E0       		.byte	-32
 4138 01a1 FF       		.byte	-1
 4139 01a2 FF       		.byte	-1
 4140 01a3 03       		.byte	3
 4141 01a4 60       		.byte	96
 4142 01a5 C0       		.byte	-64
 4143 01a6 00       		.byte	0
 4144 01a7 03       		.byte	3
 4145 01a8 60       		.byte	96
 4146 01a9 C0       		.byte	-64
 4147 01aa 00       		.byte	0
 4148 01ab 03       		.byte	3
 4149 01ac 60       		.byte	96
 4150 01ad C0       		.byte	-64
 4151 01ae 00       		.byte	0
 4152 01af 03       		.byte	3
 4153 01b0 60       		.byte	96
 4154 01b1 C0       		.byte	-64
 4155 01b2 00       		.byte	0
 4156 01b3 03       		.byte	3
 4157 01b4 60       		.byte	96
 4158 01b5 C0       		.byte	-64
 4159 01b6 00       		.byte	0
 4160 01b7 03       		.byte	3
 4161 01b8 60       		.byte	96
 4162 01b9 C0       		.byte	-64
 4163 01ba 00       		.byte	0
 4164 01bb 03       		.byte	3
 4165 01bc E0       		.byte	-32
 4166 01bd FF       		.byte	-1
 4167 01be FF       		.byte	-1
 4168 01bf 03       		.byte	3
 4169 01c0 60       		.byte	96
 4170 01c1 C0       		.byte	-64
 4171 01c2 00       		.byte	0
 4172 01c3 03       		.byte	3
 4173 01c4 60       		.byte	96
 4174 01c5 C0       		.byte	-64
 4175 01c6 00       		.byte	0
 4176 01c7 03       		.byte	3
 4177 01c8 60       		.byte	96
 4178 01c9 C0       		.byte	-64
GAS LISTING C:\Users\nesre\AppData\Local\Temp\ccPTohGt.s 			page 94


 4179 01ca 00       		.byte	0
 4180 01cb 03       		.byte	3
 4181 01cc 60       		.byte	96
 4182 01cd C0       		.byte	-64
 4183 01ce 00       		.byte	0
 4184 01cf 03       		.byte	3
 4185 01d0 60       		.byte	96
 4186 01d1 C0       		.byte	-64
 4187 01d2 00       		.byte	0
 4188 01d3 03       		.byte	3
 4189 01d4 E0       		.byte	-32
 4190 01d5 FF       		.byte	-1
 4191 01d6 FF       		.byte	-1
 4192 01d7 03       		.byte	3
 4193 01d8 60       		.byte	96
 4194 01d9 C0       		.byte	-64
 4195 01da 00       		.byte	0
 4196 01db 01       		.byte	1
 4197 01dc 60       		.byte	96
 4198 01dd C0       		.byte	-64
 4199 01de 00       		.byte	0
 4200 01df 00       		.byte	0
 4201 01e0 00       		.byte	0
 4202 01e1 C0       		.byte	-64
 4203 01e2 00       		.byte	0
 4204 01e3 08       		.byte	8
 4205 01e4 00       		.byte	0
 4206 01e5 C0       		.byte	-64
 4207 01e6 00       		.byte	0
 4208 01e7 10       		.byte	16
 4209 01e8 00       		.byte	0
 4210 01e9 C0       		.byte	-64
 4211 01ea 00       		.byte	0
 4212 01eb 10       		.byte	16
 4213 01ec 00       		.byte	0
 4214 01ed C0       		.byte	-64
 4215 01ee 00       		.byte	0
 4216 01ef 18       		.byte	24
 4217 01f0 00       		.byte	0
 4218 01f1 C0       		.byte	-64
 4219 01f2 01       		.byte	1
 4220 01f3 38       		.byte	56
 4221 01f4 00       		.byte	0
 4222 01f5 80       		.byte	-128
 4223 01f6 FF       		.byte	-1
 4224 01f7 1F       		.byte	31
 4225 01f8 00       		.byte	0
 4226 01f9 00       		.byte	0
 4227 01fa 00       		.byte	0
 4228 01fb 00       		.byte	0
 4229 01fc 00       		.byte	0
 4230 01fd 00       		.byte	0
 4231 01fe 00       		.byte	0
 4232 01ff 00       		.byte	0
 4233 0200 00       		.byte	0
 4234 0201 00       		.byte	0
 4235 0202 00       		.byte	0
GAS LISTING C:\Users\nesre\AppData\Local\Temp\ccPTohGt.s 			page 95


 4236 0203 00       		.byte	0
 4237 0204 00       		.byte	0
 4238 0205 00       		.byte	0
 4239 0206 00       		.byte	0
 4240 0207 00       		.byte	0
 4241 0208 00       		.byte	0
 4242 0209 00       		.byte	0
 4243 020a 00       		.byte	0
 4244 020b 00       		.byte	0
 4245 020c 00       		.byte	0
 4246 020d 00       		.byte	0
 4247 020e 00       		.byte	0
 4248 020f 03       		.byte	3
 4249 0210 C0       		.byte	-64
 4250 0211 FF       		.byte	-1
 4251 0212 FF       		.byte	-1
 4252 0213 07       		.byte	7
 4253 0214 00       		.byte	0
 4254 0215 00       		.byte	0
 4255 0216 80       		.byte	-128
 4256 0217 07       		.byte	7
 4257 0218 00       		.byte	0
 4258 0219 00       		.byte	0
 4259 021a C0       		.byte	-64
 4260 021b 00       		.byte	0
 4261 021c 00       		.byte	0
 4262 021d 00       		.byte	0
 4263 021e 60       		.byte	96
 4264 021f 00       		.byte	0
 4265 0220 00       		.byte	0
 4266 0221 00       		.byte	0
 4267 0222 18       		.byte	24
 4268 0223 00       		.byte	0
 4269 0224 00       		.byte	0
 4270 0225 00       		.byte	0
 4271 0226 0C       		.byte	12
 4272 0227 00       		.byte	0
 4273 0228 00       		.byte	0
 4274 0229 80       		.byte	-128
 4275 022a 03       		.byte	3
 4276 022b 00       		.byte	0
 4277 022c 00       		.byte	0
 4278 022d 80       		.byte	-128
 4279 022e 03       		.byte	3
 4280 022f 00       		.byte	0
 4281 0230 00       		.byte	0
 4282 0231 80       		.byte	-128
 4283 0232 01       		.byte	1
 4284 0233 00       		.byte	0
 4285 0234 00       		.byte	0
 4286 0235 80       		.byte	-128
 4287 0236 01       		.byte	1
 4288 0237 08       		.byte	8
 4289 0238 00       		.byte	0
 4290 0239 80       		.byte	-128
 4291 023a 01       		.byte	1
 4292 023b 1C       		.byte	28
GAS LISTING C:\Users\nesre\AppData\Local\Temp\ccPTohGt.s 			page 96


 4293 023c FC       		.byte	-4
 4294 023d FF       		.byte	-1
 4295 023e FF       		.byte	-1
 4296 023f 3F       		.byte	63
 4297 0240 00       		.byte	0
 4298 0241 80       		.byte	-128
 4299 0242 01       		.byte	1
 4300 0243 00       		.byte	0
 4301 0244 00       		.byte	0
 4302 0245 80       		.byte	-128
 4303 0246 01       		.byte	1
 4304 0247 00       		.byte	0
 4305 0248 00       		.byte	0
 4306 0249 80       		.byte	-128
 4307 024a 01       		.byte	1
 4308 024b 00       		.byte	0
 4309 024c 00       		.byte	0
 4310 024d 80       		.byte	-128
 4311 024e 01       		.byte	1
 4312 024f 00       		.byte	0
 4313 0250 00       		.byte	0
 4314 0251 80       		.byte	-128
 4315 0252 01       		.byte	1
 4316 0253 00       		.byte	0
 4317 0254 00       		.byte	0
 4318 0255 80       		.byte	-128
 4319 0256 01       		.byte	1
 4320 0257 00       		.byte	0
 4321 0258 00       		.byte	0
 4322 0259 80       		.byte	-128
 4323 025a 01       		.byte	1
 4324 025b 00       		.byte	0
 4325 025c 00       		.byte	0
 4326 025d 80       		.byte	-128
 4327 025e 01       		.byte	1
 4328 025f 00       		.byte	0
 4329 0260 00       		.byte	0
 4330 0261 80       		.byte	-128
 4331 0262 01       		.byte	1
 4332 0263 00       		.byte	0
 4333 0264 00       		.byte	0
 4334 0265 80       		.byte	-128
 4335 0266 01       		.byte	1
 4336 0267 00       		.byte	0
 4337 0268 00       		.byte	0
 4338 0269 80       		.byte	-128
 4339 026a 01       		.byte	1
 4340 026b 00       		.byte	0
 4341 026c 00       		.byte	0
 4342 026d 80       		.byte	-128
 4343 026e 01       		.byte	1
 4344 026f 00       		.byte	0
 4345 0270 00       		.byte	0
 4346 0271 FC       		.byte	-4
 4347 0272 01       		.byte	1
 4348 0273 00       		.byte	0
 4349 0274 00       		.byte	0
GAS LISTING C:\Users\nesre\AppData\Local\Temp\ccPTohGt.s 			page 97


 4350 0275 E0       		.byte	-32
 4351 0276 00       		.byte	0
 4352 0277 00       		.byte	0
 4353 0278 00       		.byte	0
 4354 0279 40       		.byte	64
 4355 027a 00       		.byte	0
 4356 027b 00       		.byte	0
 4357 027c 00       		.byte	0
 4358 027d 00       		.byte	0
 4359 027e 00       		.byte	0
 4360 027f 00       		.byte	0
 4361              		.section	.rodata.LCD_ShowNum1.cst4,"aM",@progbits,4
 4362              		.align	2
 4363              	.LC1:
 4364 0000 0000C842 		.word	1120403456
 4365              		.section	.rodata.asc2_1608,"a"
 4366              		.align	2
 4367              		.set	.LANCHOR6,. + 0
 4370              	asc2_1608:
 4371 0000 00       		.byte	0
 4372 0001 00       		.byte	0
 4373 0002 00       		.byte	0
 4374 0003 00       		.byte	0
 4375 0004 00       		.byte	0
 4376 0005 00       		.byte	0
 4377 0006 00       		.byte	0
 4378 0007 00       		.byte	0
 4379 0008 00       		.byte	0
 4380 0009 00       		.byte	0
 4381 000a 00       		.byte	0
 4382 000b 00       		.byte	0
 4383 000c 00       		.byte	0
 4384 000d 00       		.byte	0
 4385 000e 00       		.byte	0
 4386 000f 00       		.byte	0
 4387 0010 00       		.byte	0
 4388 0011 00       		.byte	0
 4389 0012 00       		.byte	0
 4390 0013 08       		.byte	8
 4391 0014 08       		.byte	8
 4392 0015 08       		.byte	8
 4393 0016 08       		.byte	8
 4394 0017 08       		.byte	8
 4395 0018 08       		.byte	8
 4396 0019 08       		.byte	8
 4397 001a 00       		.byte	0
 4398 001b 00       		.byte	0
 4399 001c 18       		.byte	24
 4400 001d 18       		.byte	24
 4401 001e 00       		.byte	0
 4402 001f 00       		.byte	0
 4403 0020 00       		.byte	0
 4404 0021 48       		.byte	72
 4405 0022 6C       		.byte	108
 4406 0023 24       		.byte	36
 4407 0024 12       		.byte	18
 4408 0025 00       		.byte	0
GAS LISTING C:\Users\nesre\AppData\Local\Temp\ccPTohGt.s 			page 98


 4409 0026 00       		.byte	0
 4410 0027 00       		.byte	0
 4411 0028 00       		.byte	0
 4412 0029 00       		.byte	0
 4413 002a 00       		.byte	0
 4414 002b 00       		.byte	0
 4415 002c 00       		.byte	0
 4416 002d 00       		.byte	0
 4417 002e 00       		.byte	0
 4418 002f 00       		.byte	0
 4419 0030 00       		.byte	0
 4420 0031 00       		.byte	0
 4421 0032 00       		.byte	0
 4422 0033 24       		.byte	36
 4423 0034 24       		.byte	36
 4424 0035 24       		.byte	36
 4425 0036 7F       		.byte	127
 4426 0037 12       		.byte	18
 4427 0038 12       		.byte	18
 4428 0039 12       		.byte	18
 4429 003a 7F       		.byte	127
 4430 003b 12       		.byte	18
 4431 003c 12       		.byte	18
 4432 003d 12       		.byte	18
 4433 003e 00       		.byte	0
 4434 003f 00       		.byte	0
 4435 0040 00       		.byte	0
 4436 0041 00       		.byte	0
 4437 0042 08       		.byte	8
 4438 0043 1C       		.byte	28
 4439 0044 2A       		.byte	42
 4440 0045 2A       		.byte	42
 4441 0046 0A       		.byte	10
 4442 0047 0C       		.byte	12
 4443 0048 18       		.byte	24
 4444 0049 28       		.byte	40
 4445 004a 28       		.byte	40
 4446 004b 2A       		.byte	42
 4447 004c 2A       		.byte	42
 4448 004d 1C       		.byte	28
 4449 004e 08       		.byte	8
 4450 004f 08       		.byte	8
 4451 0050 00       		.byte	0
 4452 0051 00       		.byte	0
 4453 0052 00       		.byte	0
 4454 0053 22       		.byte	34
 4455 0054 25       		.byte	37
 4456 0055 15       		.byte	21
 4457 0056 15       		.byte	21
 4458 0057 15       		.byte	21
 4459 0058 2A       		.byte	42
 4460 0059 58       		.byte	88
 4461 005a 54       		.byte	84
 4462 005b 54       		.byte	84
 4463 005c 54       		.byte	84
 4464 005d 22       		.byte	34
 4465 005e 00       		.byte	0
GAS LISTING C:\Users\nesre\AppData\Local\Temp\ccPTohGt.s 			page 99


 4466 005f 00       		.byte	0
 4467 0060 00       		.byte	0
 4468 0061 00       		.byte	0
 4469 0062 00       		.byte	0
 4470 0063 0C       		.byte	12
 4471 0064 12       		.byte	18
 4472 0065 12       		.byte	18
 4473 0066 12       		.byte	18
 4474 0067 0A       		.byte	10
 4475 0068 76       		.byte	118
 4476 0069 25       		.byte	37
 4477 006a 29       		.byte	41
 4478 006b 11       		.byte	17
 4479 006c 91       		.byte	-111
 4480 006d 6E       		.byte	110
 4481 006e 00       		.byte	0
 4482 006f 00       		.byte	0
 4483 0070 00       		.byte	0
 4484 0071 06       		.byte	6
 4485 0072 06       		.byte	6
 4486 0073 04       		.byte	4
 4487 0074 03       		.byte	3
 4488 0075 00       		.byte	0
 4489 0076 00       		.byte	0
 4490 0077 00       		.byte	0
 4491 0078 00       		.byte	0
 4492 0079 00       		.byte	0
 4493 007a 00       		.byte	0
 4494 007b 00       		.byte	0
 4495 007c 00       		.byte	0
 4496 007d 00       		.byte	0
 4497 007e 00       		.byte	0
 4498 007f 00       		.byte	0
 4499 0080 00       		.byte	0
 4500 0081 40       		.byte	64
 4501 0082 20       		.byte	32
 4502 0083 10       		.byte	16
 4503 0084 10       		.byte	16
 4504 0085 08       		.byte	8
 4505 0086 08       		.byte	8
 4506 0087 08       		.byte	8
 4507 0088 08       		.byte	8
 4508 0089 08       		.byte	8
 4509 008a 08       		.byte	8
 4510 008b 10       		.byte	16
 4511 008c 10       		.byte	16
 4512 008d 20       		.byte	32
 4513 008e 40       		.byte	64
 4514 008f 00       		.byte	0
 4515 0090 00       		.byte	0
 4516 0091 02       		.byte	2
 4517 0092 04       		.byte	4
 4518 0093 08       		.byte	8
 4519 0094 08       		.byte	8
 4520 0095 10       		.byte	16
 4521 0096 10       		.byte	16
 4522 0097 10       		.byte	16
GAS LISTING C:\Users\nesre\AppData\Local\Temp\ccPTohGt.s 			page 100


 4523 0098 10       		.byte	16
 4524 0099 10       		.byte	16
 4525 009a 10       		.byte	16
 4526 009b 08       		.byte	8
 4527 009c 08       		.byte	8
 4528 009d 04       		.byte	4
 4529 009e 02       		.byte	2
 4530 009f 00       		.byte	0
 4531 00a0 00       		.byte	0
 4532 00a1 00       		.byte	0
 4533 00a2 00       		.byte	0
 4534 00a3 00       		.byte	0
 4535 00a4 08       		.byte	8
 4536 00a5 08       		.byte	8
 4537 00a6 6B       		.byte	107
 4538 00a7 1C       		.byte	28
 4539 00a8 1C       		.byte	28
 4540 00a9 6B       		.byte	107
 4541 00aa 08       		.byte	8
 4542 00ab 08       		.byte	8
 4543 00ac 00       		.byte	0
 4544 00ad 00       		.byte	0
 4545 00ae 00       		.byte	0
 4546 00af 00       		.byte	0
 4547 00b0 00       		.byte	0
 4548 00b1 00       		.byte	0
 4549 00b2 00       		.byte	0
 4550 00b3 00       		.byte	0
 4551 00b4 08       		.byte	8
 4552 00b5 08       		.byte	8
 4553 00b6 08       		.byte	8
 4554 00b7 08       		.byte	8
 4555 00b8 7F       		.byte	127
 4556 00b9 08       		.byte	8
 4557 00ba 08       		.byte	8
 4558 00bb 08       		.byte	8
 4559 00bc 08       		.byte	8
 4560 00bd 00       		.byte	0
 4561 00be 00       		.byte	0
 4562 00bf 00       		.byte	0
 4563 00c0 00       		.byte	0
 4564 00c1 00       		.byte	0
 4565 00c2 00       		.byte	0
 4566 00c3 00       		.byte	0
 4567 00c4 00       		.byte	0
 4568 00c5 00       		.byte	0
 4569 00c6 00       		.byte	0
 4570 00c7 00       		.byte	0
 4571 00c8 00       		.byte	0
 4572 00c9 00       		.byte	0
 4573 00ca 00       		.byte	0
 4574 00cb 00       		.byte	0
 4575 00cc 06       		.byte	6
 4576 00cd 06       		.byte	6
 4577 00ce 04       		.byte	4
 4578 00cf 03       		.byte	3
 4579 00d0 00       		.byte	0
GAS LISTING C:\Users\nesre\AppData\Local\Temp\ccPTohGt.s 			page 101


 4580 00d1 00       		.byte	0
 4581 00d2 00       		.byte	0
 4582 00d3 00       		.byte	0
 4583 00d4 00       		.byte	0
 4584 00d5 00       		.byte	0
 4585 00d6 00       		.byte	0
 4586 00d7 00       		.byte	0
 4587 00d8 FE       		.byte	-2
 4588 00d9 00       		.byte	0
 4589 00da 00       		.byte	0
 4590 00db 00       		.byte	0
 4591 00dc 00       		.byte	0
 4592 00dd 00       		.byte	0
 4593 00de 00       		.byte	0
 4594 00df 00       		.byte	0
 4595 00e0 00       		.byte	0
 4596 00e1 00       		.byte	0
 4597 00e2 00       		.byte	0
 4598 00e3 00       		.byte	0
 4599 00e4 00       		.byte	0
 4600 00e5 00       		.byte	0
 4601 00e6 00       		.byte	0
 4602 00e7 00       		.byte	0
 4603 00e8 00       		.byte	0
 4604 00e9 00       		.byte	0
 4605 00ea 00       		.byte	0
 4606 00eb 00       		.byte	0
 4607 00ec 06       		.byte	6
 4608 00ed 06       		.byte	6
 4609 00ee 00       		.byte	0
 4610 00ef 00       		.byte	0
 4611 00f0 00       		.byte	0
 4612 00f1 00       		.byte	0
 4613 00f2 80       		.byte	-128
 4614 00f3 40       		.byte	64
 4615 00f4 40       		.byte	64
 4616 00f5 20       		.byte	32
 4617 00f6 20       		.byte	32
 4618 00f7 10       		.byte	16
 4619 00f8 10       		.byte	16
 4620 00f9 08       		.byte	8
 4621 00fa 08       		.byte	8
 4622 00fb 04       		.byte	4
 4623 00fc 04       		.byte	4
 4624 00fd 02       		.byte	2
 4625 00fe 02       		.byte	2
 4626 00ff 00       		.byte	0
 4627 0100 00       		.byte	0
 4628 0101 00       		.byte	0
 4629 0102 00       		.byte	0
 4630 0103 18       		.byte	24
 4631 0104 24       		.byte	36
 4632 0105 42       		.byte	66
 4633 0106 42       		.byte	66
 4634 0107 42       		.byte	66
 4635 0108 42       		.byte	66
 4636 0109 42       		.byte	66
GAS LISTING C:\Users\nesre\AppData\Local\Temp\ccPTohGt.s 			page 102


 4637 010a 42       		.byte	66
 4638 010b 42       		.byte	66
 4639 010c 24       		.byte	36
 4640 010d 18       		.byte	24
 4641 010e 00       		.byte	0
 4642 010f 00       		.byte	0
 4643 0110 00       		.byte	0
 4644 0111 00       		.byte	0
 4645 0112 00       		.byte	0
 4646 0113 08       		.byte	8
 4647 0114 0E       		.byte	14
 4648 0115 08       		.byte	8
 4649 0116 08       		.byte	8
 4650 0117 08       		.byte	8
 4651 0118 08       		.byte	8
 4652 0119 08       		.byte	8
 4653 011a 08       		.byte	8
 4654 011b 08       		.byte	8
 4655 011c 08       		.byte	8
 4656 011d 3E       		.byte	62
 4657 011e 00       		.byte	0
 4658 011f 00       		.byte	0
 4659 0120 00       		.byte	0
 4660 0121 00       		.byte	0
 4661 0122 00       		.byte	0
 4662 0123 3C       		.byte	60
 4663 0124 42       		.byte	66
 4664 0125 42       		.byte	66
 4665 0126 42       		.byte	66
 4666 0127 20       		.byte	32
 4667 0128 20       		.byte	32
 4668 0129 10       		.byte	16
 4669 012a 08       		.byte	8
 4670 012b 04       		.byte	4
 4671 012c 42       		.byte	66
 4672 012d 7E       		.byte	126
 4673 012e 00       		.byte	0
 4674 012f 00       		.byte	0
 4675 0130 00       		.byte	0
 4676 0131 00       		.byte	0
 4677 0132 00       		.byte	0
 4678 0133 3C       		.byte	60
 4679 0134 42       		.byte	66
 4680 0135 42       		.byte	66
 4681 0136 20       		.byte	32
 4682 0137 18       		.byte	24
 4683 0138 20       		.byte	32
 4684 0139 40       		.byte	64
 4685 013a 40       		.byte	64
 4686 013b 42       		.byte	66
 4687 013c 22       		.byte	34
 4688 013d 1C       		.byte	28
 4689 013e 00       		.byte	0
 4690 013f 00       		.byte	0
 4691 0140 00       		.byte	0
 4692 0141 00       		.byte	0
 4693 0142 00       		.byte	0
GAS LISTING C:\Users\nesre\AppData\Local\Temp\ccPTohGt.s 			page 103


 4694 0143 20       		.byte	32
 4695 0144 30       		.byte	48
 4696 0145 28       		.byte	40
 4697 0146 24       		.byte	36
 4698 0147 24       		.byte	36
 4699 0148 22       		.byte	34
 4700 0149 22       		.byte	34
 4701 014a 7E       		.byte	126
 4702 014b 20       		.byte	32
 4703 014c 20       		.byte	32
 4704 014d 78       		.byte	120
 4705 014e 00       		.byte	0
 4706 014f 00       		.byte	0
 4707 0150 00       		.byte	0
 4708 0151 00       		.byte	0
 4709 0152 00       		.byte	0
 4710 0153 7E       		.byte	126
 4711 0154 02       		.byte	2
 4712 0155 02       		.byte	2
 4713 0156 02       		.byte	2
 4714 0157 1A       		.byte	26
 4715 0158 26       		.byte	38
 4716 0159 40       		.byte	64
 4717 015a 40       		.byte	64
 4718 015b 42       		.byte	66
 4719 015c 22       		.byte	34
 4720 015d 1C       		.byte	28
 4721 015e 00       		.byte	0
 4722 015f 00       		.byte	0
 4723 0160 00       		.byte	0
 4724 0161 00       		.byte	0
 4725 0162 00       		.byte	0
 4726 0163 38       		.byte	56
 4727 0164 24       		.byte	36
 4728 0165 02       		.byte	2
 4729 0166 02       		.byte	2
 4730 0167 1A       		.byte	26
 4731 0168 26       		.byte	38
 4732 0169 42       		.byte	66
 4733 016a 42       		.byte	66
 4734 016b 42       		.byte	66
 4735 016c 24       		.byte	36
 4736 016d 18       		.byte	24
 4737 016e 00       		.byte	0
 4738 016f 00       		.byte	0
 4739 0170 00       		.byte	0
 4740 0171 00       		.byte	0
 4741 0172 00       		.byte	0
 4742 0173 7E       		.byte	126
 4743 0174 22       		.byte	34
 4744 0175 22       		.byte	34
 4745 0176 10       		.byte	16
 4746 0177 10       		.byte	16
 4747 0178 08       		.byte	8
 4748 0179 08       		.byte	8
 4749 017a 08       		.byte	8
 4750 017b 08       		.byte	8
GAS LISTING C:\Users\nesre\AppData\Local\Temp\ccPTohGt.s 			page 104


 4751 017c 08       		.byte	8
 4752 017d 08       		.byte	8
 4753 017e 00       		.byte	0
 4754 017f 00       		.byte	0
 4755 0180 00       		.byte	0
 4756 0181 00       		.byte	0
 4757 0182 00       		.byte	0
 4758 0183 3C       		.byte	60
 4759 0184 42       		.byte	66
 4760 0185 42       		.byte	66
 4761 0186 42       		.byte	66
 4762 0187 24       		.byte	36
 4763 0188 18       		.byte	24
 4764 0189 24       		.byte	36
 4765 018a 42       		.byte	66
 4766 018b 42       		.byte	66
 4767 018c 42       		.byte	66
 4768 018d 3C       		.byte	60
 4769 018e 00       		.byte	0
 4770 018f 00       		.byte	0
 4771 0190 00       		.byte	0
 4772 0191 00       		.byte	0
 4773 0192 00       		.byte	0
 4774 0193 18       		.byte	24
 4775 0194 24       		.byte	36
 4776 0195 42       		.byte	66
 4777 0196 42       		.byte	66
 4778 0197 42       		.byte	66
 4779 0198 64       		.byte	100
 4780 0199 58       		.byte	88
 4781 019a 40       		.byte	64
 4782 019b 40       		.byte	64
 4783 019c 24       		.byte	36
 4784 019d 1C       		.byte	28
 4785 019e 00       		.byte	0
 4786 019f 00       		.byte	0
 4787 01a0 00       		.byte	0
 4788 01a1 00       		.byte	0
 4789 01a2 00       		.byte	0
 4790 01a3 00       		.byte	0
 4791 01a4 00       		.byte	0
 4792 01a5 00       		.byte	0
 4793 01a6 18       		.byte	24
 4794 01a7 18       		.byte	24
 4795 01a8 00       		.byte	0
 4796 01a9 00       		.byte	0
 4797 01aa 00       		.byte	0
 4798 01ab 00       		.byte	0
 4799 01ac 18       		.byte	24
 4800 01ad 18       		.byte	24
 4801 01ae 00       		.byte	0
 4802 01af 00       		.byte	0
 4803 01b0 00       		.byte	0
 4804 01b1 00       		.byte	0
 4805 01b2 00       		.byte	0
 4806 01b3 00       		.byte	0
 4807 01b4 00       		.byte	0
GAS LISTING C:\Users\nesre\AppData\Local\Temp\ccPTohGt.s 			page 105


 4808 01b5 00       		.byte	0
 4809 01b6 00       		.byte	0
 4810 01b7 08       		.byte	8
 4811 01b8 00       		.byte	0
 4812 01b9 00       		.byte	0
 4813 01ba 00       		.byte	0
 4814 01bb 00       		.byte	0
 4815 01bc 00       		.byte	0
 4816 01bd 08       		.byte	8
 4817 01be 08       		.byte	8
 4818 01bf 04       		.byte	4
 4819 01c0 00       		.byte	0
 4820 01c1 00       		.byte	0
 4821 01c2 00       		.byte	0
 4822 01c3 40       		.byte	64
 4823 01c4 20       		.byte	32
 4824 01c5 10       		.byte	16
 4825 01c6 08       		.byte	8
 4826 01c7 04       		.byte	4
 4827 01c8 02       		.byte	2
 4828 01c9 04       		.byte	4
 4829 01ca 08       		.byte	8
 4830 01cb 10       		.byte	16
 4831 01cc 20       		.byte	32
 4832 01cd 40       		.byte	64
 4833 01ce 00       		.byte	0
 4834 01cf 00       		.byte	0
 4835 01d0 00       		.byte	0
 4836 01d1 00       		.byte	0
 4837 01d2 00       		.byte	0
 4838 01d3 00       		.byte	0
 4839 01d4 00       		.byte	0
 4840 01d5 00       		.byte	0
 4841 01d6 7F       		.byte	127
 4842 01d7 00       		.byte	0
 4843 01d8 00       		.byte	0
 4844 01d9 00       		.byte	0
 4845 01da 7F       		.byte	127
 4846 01db 00       		.byte	0
 4847 01dc 00       		.byte	0
 4848 01dd 00       		.byte	0
 4849 01de 00       		.byte	0
 4850 01df 00       		.byte	0
 4851 01e0 00       		.byte	0
 4852 01e1 00       		.byte	0
 4853 01e2 00       		.byte	0
 4854 01e3 02       		.byte	2
 4855 01e4 04       		.byte	4
 4856 01e5 08       		.byte	8
 4857 01e6 10       		.byte	16
 4858 01e7 20       		.byte	32
 4859 01e8 40       		.byte	64
 4860 01e9 20       		.byte	32
 4861 01ea 10       		.byte	16
 4862 01eb 08       		.byte	8
 4863 01ec 04       		.byte	4
 4864 01ed 02       		.byte	2
GAS LISTING C:\Users\nesre\AppData\Local\Temp\ccPTohGt.s 			page 106


 4865 01ee 00       		.byte	0
 4866 01ef 00       		.byte	0
 4867 01f0 00       		.byte	0
 4868 01f1 00       		.byte	0
 4869 01f2 00       		.byte	0
 4870 01f3 3C       		.byte	60
 4871 01f4 42       		.byte	66
 4872 01f5 42       		.byte	66
 4873 01f6 46       		.byte	70
 4874 01f7 40       		.byte	64
 4875 01f8 20       		.byte	32
 4876 01f9 10       		.byte	16
 4877 01fa 10       		.byte	16
 4878 01fb 00       		.byte	0
 4879 01fc 18       		.byte	24
 4880 01fd 18       		.byte	24
 4881 01fe 00       		.byte	0
 4882 01ff 00       		.byte	0
 4883 0200 00       		.byte	0
 4884 0201 00       		.byte	0
 4885 0202 00       		.byte	0
 4886 0203 1C       		.byte	28
 4887 0204 22       		.byte	34
 4888 0205 5A       		.byte	90
 4889 0206 55       		.byte	85
 4890 0207 55       		.byte	85
 4891 0208 55       		.byte	85
 4892 0209 55       		.byte	85
 4893 020a 2D       		.byte	45
 4894 020b 42       		.byte	66
 4895 020c 22       		.byte	34
 4896 020d 1C       		.byte	28
 4897 020e 00       		.byte	0
 4898 020f 00       		.byte	0
 4899 0210 00       		.byte	0
 4900 0211 00       		.byte	0
 4901 0212 00       		.byte	0
 4902 0213 08       		.byte	8
 4903 0214 08       		.byte	8
 4904 0215 18       		.byte	24
 4905 0216 14       		.byte	20
 4906 0217 14       		.byte	20
 4907 0218 24       		.byte	36
 4908 0219 3C       		.byte	60
 4909 021a 22       		.byte	34
 4910 021b 42       		.byte	66
 4911 021c 42       		.byte	66
 4912 021d E7       		.byte	-25
 4913 021e 00       		.byte	0
 4914 021f 00       		.byte	0
 4915 0220 00       		.byte	0
 4916 0221 00       		.byte	0
 4917 0222 00       		.byte	0
 4918 0223 1F       		.byte	31
 4919 0224 22       		.byte	34
 4920 0225 22       		.byte	34
 4921 0226 22       		.byte	34
GAS LISTING C:\Users\nesre\AppData\Local\Temp\ccPTohGt.s 			page 107


 4922 0227 1E       		.byte	30
 4923 0228 22       		.byte	34
 4924 0229 42       		.byte	66
 4925 022a 42       		.byte	66
 4926 022b 42       		.byte	66
 4927 022c 22       		.byte	34
 4928 022d 1F       		.byte	31
 4929 022e 00       		.byte	0
 4930 022f 00       		.byte	0
 4931 0230 00       		.byte	0
 4932 0231 00       		.byte	0
 4933 0232 00       		.byte	0
 4934 0233 7C       		.byte	124
 4935 0234 42       		.byte	66
 4936 0235 42       		.byte	66
 4937 0236 01       		.byte	1
 4938 0237 01       		.byte	1
 4939 0238 01       		.byte	1
 4940 0239 01       		.byte	1
 4941 023a 01       		.byte	1
 4942 023b 42       		.byte	66
 4943 023c 22       		.byte	34
 4944 023d 1C       		.byte	28
 4945 023e 00       		.byte	0
 4946 023f 00       		.byte	0
 4947 0240 00       		.byte	0
 4948 0241 00       		.byte	0
 4949 0242 00       		.byte	0
 4950 0243 1F       		.byte	31
 4951 0244 22       		.byte	34
 4952 0245 42       		.byte	66
 4953 0246 42       		.byte	66
 4954 0247 42       		.byte	66
 4955 0248 42       		.byte	66
 4956 0249 42       		.byte	66
 4957 024a 42       		.byte	66
 4958 024b 42       		.byte	66
 4959 024c 22       		.byte	34
 4960 024d 1F       		.byte	31
 4961 024e 00       		.byte	0
 4962 024f 00       		.byte	0
 4963 0250 00       		.byte	0
 4964 0251 00       		.byte	0
 4965 0252 00       		.byte	0
 4966 0253 3F       		.byte	63
 4967 0254 42       		.byte	66
 4968 0255 12       		.byte	18
 4969 0256 12       		.byte	18
 4970 0257 1E       		.byte	30
 4971 0258 12       		.byte	18
 4972 0259 12       		.byte	18
 4973 025a 02       		.byte	2
 4974 025b 42       		.byte	66
 4975 025c 42       		.byte	66
 4976 025d 3F       		.byte	63
 4977 025e 00       		.byte	0
 4978 025f 00       		.byte	0
GAS LISTING C:\Users\nesre\AppData\Local\Temp\ccPTohGt.s 			page 108


 4979 0260 00       		.byte	0
 4980 0261 00       		.byte	0
 4981 0262 00       		.byte	0
 4982 0263 3F       		.byte	63
 4983 0264 42       		.byte	66
 4984 0265 12       		.byte	18
 4985 0266 12       		.byte	18
 4986 0267 1E       		.byte	30
 4987 0268 12       		.byte	18
 4988 0269 12       		.byte	18
 4989 026a 02       		.byte	2
 4990 026b 02       		.byte	2
 4991 026c 02       		.byte	2
 4992 026d 07       		.byte	7
 4993 026e 00       		.byte	0
 4994 026f 00       		.byte	0
 4995 0270 00       		.byte	0
 4996 0271 00       		.byte	0
 4997 0272 00       		.byte	0
 4998 0273 3C       		.byte	60
 4999 0274 22       		.byte	34
 5000 0275 22       		.byte	34
 5001 0276 01       		.byte	1
 5002 0277 01       		.byte	1
 5003 0278 01       		.byte	1
 5004 0279 71       		.byte	113
 5005 027a 21       		.byte	33
 5006 027b 22       		.byte	34
 5007 027c 22       		.byte	34
 5008 027d 1C       		.byte	28
 5009 027e 00       		.byte	0
 5010 027f 00       		.byte	0
 5011 0280 00       		.byte	0
 5012 0281 00       		.byte	0
 5013 0282 00       		.byte	0
 5014 0283 E7       		.byte	-25
 5015 0284 42       		.byte	66
 5016 0285 42       		.byte	66
 5017 0286 42       		.byte	66
 5018 0287 42       		.byte	66
 5019 0288 7E       		.byte	126
 5020 0289 42       		.byte	66
 5021 028a 42       		.byte	66
 5022 028b 42       		.byte	66
 5023 028c 42       		.byte	66
 5024 028d E7       		.byte	-25
 5025 028e 00       		.byte	0
 5026 028f 00       		.byte	0
 5027 0290 00       		.byte	0
 5028 0291 00       		.byte	0
 5029 0292 00       		.byte	0
 5030 0293 3E       		.byte	62
 5031 0294 08       		.byte	8
 5032 0295 08       		.byte	8
 5033 0296 08       		.byte	8
 5034 0297 08       		.byte	8
 5035 0298 08       		.byte	8
GAS LISTING C:\Users\nesre\AppData\Local\Temp\ccPTohGt.s 			page 109


 5036 0299 08       		.byte	8
 5037 029a 08       		.byte	8
 5038 029b 08       		.byte	8
 5039 029c 08       		.byte	8
 5040 029d 3E       		.byte	62
 5041 029e 00       		.byte	0
 5042 029f 00       		.byte	0
 5043 02a0 00       		.byte	0
 5044 02a1 00       		.byte	0
 5045 02a2 00       		.byte	0
 5046 02a3 7C       		.byte	124
 5047 02a4 10       		.byte	16
 5048 02a5 10       		.byte	16
 5049 02a6 10       		.byte	16
 5050 02a7 10       		.byte	16
 5051 02a8 10       		.byte	16
 5052 02a9 10       		.byte	16
 5053 02aa 10       		.byte	16
 5054 02ab 10       		.byte	16
 5055 02ac 10       		.byte	16
 5056 02ad 10       		.byte	16
 5057 02ae 11       		.byte	17
 5058 02af 0F       		.byte	15
 5059 02b0 00       		.byte	0
 5060 02b1 00       		.byte	0
 5061 02b2 00       		.byte	0
 5062 02b3 77       		.byte	119
 5063 02b4 22       		.byte	34
 5064 02b5 12       		.byte	18
 5065 02b6 0A       		.byte	10
 5066 02b7 0E       		.byte	14
 5067 02b8 0A       		.byte	10
 5068 02b9 12       		.byte	18
 5069 02ba 12       		.byte	18
 5070 02bb 22       		.byte	34
 5071 02bc 22       		.byte	34
 5072 02bd 77       		.byte	119
 5073 02be 00       		.byte	0
 5074 02bf 00       		.byte	0
 5075 02c0 00       		.byte	0
 5076 02c1 00       		.byte	0
 5077 02c2 00       		.byte	0
 5078 02c3 07       		.byte	7
 5079 02c4 02       		.byte	2
 5080 02c5 02       		.byte	2
 5081 02c6 02       		.byte	2
 5082 02c7 02       		.byte	2
 5083 02c8 02       		.byte	2
 5084 02c9 02       		.byte	2
 5085 02ca 02       		.byte	2
 5086 02cb 02       		.byte	2
 5087 02cc 42       		.byte	66
 5088 02cd 7F       		.byte	127
 5089 02ce 00       		.byte	0
 5090 02cf 00       		.byte	0
 5091 02d0 00       		.byte	0
 5092 02d1 00       		.byte	0
GAS LISTING C:\Users\nesre\AppData\Local\Temp\ccPTohGt.s 			page 110


 5093 02d2 00       		.byte	0
 5094 02d3 77       		.byte	119
 5095 02d4 36       		.byte	54
 5096 02d5 36       		.byte	54
 5097 02d6 36       		.byte	54
 5098 02d7 36       		.byte	54
 5099 02d8 2A       		.byte	42
 5100 02d9 2A       		.byte	42
 5101 02da 2A       		.byte	42
 5102 02db 2A       		.byte	42
 5103 02dc 2A       		.byte	42
 5104 02dd 6B       		.byte	107
 5105 02de 00       		.byte	0
 5106 02df 00       		.byte	0
 5107 02e0 00       		.byte	0
 5108 02e1 00       		.byte	0
 5109 02e2 00       		.byte	0
 5110 02e3 E3       		.byte	-29
 5111 02e4 46       		.byte	70
 5112 02e5 46       		.byte	70
 5113 02e6 4A       		.byte	74
 5114 02e7 4A       		.byte	74
 5115 02e8 52       		.byte	82
 5116 02e9 52       		.byte	82
 5117 02ea 52       		.byte	82
 5118 02eb 62       		.byte	98
 5119 02ec 62       		.byte	98
 5120 02ed 47       		.byte	71
 5121 02ee 00       		.byte	0
 5122 02ef 00       		.byte	0
 5123 02f0 00       		.byte	0
 5124 02f1 00       		.byte	0
 5125 02f2 00       		.byte	0
 5126 02f3 1C       		.byte	28
 5127 02f4 22       		.byte	34
 5128 02f5 41       		.byte	65
 5129 02f6 41       		.byte	65
 5130 02f7 41       		.byte	65
 5131 02f8 41       		.byte	65
 5132 02f9 41       		.byte	65
 5133 02fa 41       		.byte	65
 5134 02fb 41       		.byte	65
 5135 02fc 22       		.byte	34
 5136 02fd 1C       		.byte	28
 5137 02fe 00       		.byte	0
 5138 02ff 00       		.byte	0
 5139 0300 00       		.byte	0
 5140 0301 00       		.byte	0
 5141 0302 00       		.byte	0
 5142 0303 3F       		.byte	63
 5143 0304 42       		.byte	66
 5144 0305 42       		.byte	66
 5145 0306 42       		.byte	66
 5146 0307 42       		.byte	66
 5147 0308 3E       		.byte	62
 5148 0309 02       		.byte	2
 5149 030a 02       		.byte	2
GAS LISTING C:\Users\nesre\AppData\Local\Temp\ccPTohGt.s 			page 111


 5150 030b 02       		.byte	2
 5151 030c 02       		.byte	2
 5152 030d 07       		.byte	7
 5153 030e 00       		.byte	0
 5154 030f 00       		.byte	0
 5155 0310 00       		.byte	0
 5156 0311 00       		.byte	0
 5157 0312 00       		.byte	0
 5158 0313 1C       		.byte	28
 5159 0314 22       		.byte	34
 5160 0315 41       		.byte	65
 5161 0316 41       		.byte	65
 5162 0317 41       		.byte	65
 5163 0318 41       		.byte	65
 5164 0319 41       		.byte	65
 5165 031a 4D       		.byte	77
 5166 031b 53       		.byte	83
 5167 031c 32       		.byte	50
 5168 031d 1C       		.byte	28
 5169 031e 60       		.byte	96
 5170 031f 00       		.byte	0
 5171 0320 00       		.byte	0
 5172 0321 00       		.byte	0
 5173 0322 00       		.byte	0
 5174 0323 3F       		.byte	63
 5175 0324 42       		.byte	66
 5176 0325 42       		.byte	66
 5177 0326 42       		.byte	66
 5178 0327 3E       		.byte	62
 5179 0328 12       		.byte	18
 5180 0329 12       		.byte	18
 5181 032a 22       		.byte	34
 5182 032b 22       		.byte	34
 5183 032c 42       		.byte	66
 5184 032d C7       		.byte	-57
 5185 032e 00       		.byte	0
 5186 032f 00       		.byte	0
 5187 0330 00       		.byte	0
 5188 0331 00       		.byte	0
 5189 0332 00       		.byte	0
 5190 0333 7C       		.byte	124
 5191 0334 42       		.byte	66
 5192 0335 42       		.byte	66
 5193 0336 02       		.byte	2
 5194 0337 04       		.byte	4
 5195 0338 18       		.byte	24
 5196 0339 20       		.byte	32
 5197 033a 40       		.byte	64
 5198 033b 42       		.byte	66
 5199 033c 42       		.byte	66
 5200 033d 3E       		.byte	62
 5201 033e 00       		.byte	0
 5202 033f 00       		.byte	0
 5203 0340 00       		.byte	0
 5204 0341 00       		.byte	0
 5205 0342 00       		.byte	0
 5206 0343 7F       		.byte	127
GAS LISTING C:\Users\nesre\AppData\Local\Temp\ccPTohGt.s 			page 112


 5207 0344 49       		.byte	73
 5208 0345 08       		.byte	8
 5209 0346 08       		.byte	8
 5210 0347 08       		.byte	8
 5211 0348 08       		.byte	8
 5212 0349 08       		.byte	8
 5213 034a 08       		.byte	8
 5214 034b 08       		.byte	8
 5215 034c 08       		.byte	8
 5216 034d 1C       		.byte	28
 5217 034e 00       		.byte	0
 5218 034f 00       		.byte	0
 5219 0350 00       		.byte	0
 5220 0351 00       		.byte	0
 5221 0352 00       		.byte	0
 5222 0353 E7       		.byte	-25
 5223 0354 42       		.byte	66
 5224 0355 42       		.byte	66
 5225 0356 42       		.byte	66
 5226 0357 42       		.byte	66
 5227 0358 42       		.byte	66
 5228 0359 42       		.byte	66
 5229 035a 42       		.byte	66
 5230 035b 42       		.byte	66
 5231 035c 42       		.byte	66
 5232 035d 3C       		.byte	60
 5233 035e 00       		.byte	0
 5234 035f 00       		.byte	0
 5235 0360 00       		.byte	0
 5236 0361 00       		.byte	0
 5237 0362 00       		.byte	0
 5238 0363 E7       		.byte	-25
 5239 0364 42       		.byte	66
 5240 0365 42       		.byte	66
 5241 0366 22       		.byte	34
 5242 0367 24       		.byte	36
 5243 0368 24       		.byte	36
 5244 0369 14       		.byte	20
 5245 036a 14       		.byte	20
 5246 036b 18       		.byte	24
 5247 036c 08       		.byte	8
 5248 036d 08       		.byte	8
 5249 036e 00       		.byte	0
 5250 036f 00       		.byte	0
 5251 0370 00       		.byte	0
 5252 0371 00       		.byte	0
 5253 0372 00       		.byte	0
 5254 0373 6B       		.byte	107
 5255 0374 49       		.byte	73
 5256 0375 49       		.byte	73
 5257 0376 49       		.byte	73
 5258 0377 49       		.byte	73
 5259 0378 55       		.byte	85
 5260 0379 55       		.byte	85
 5261 037a 36       		.byte	54
 5262 037b 22       		.byte	34
 5263 037c 22       		.byte	34
GAS LISTING C:\Users\nesre\AppData\Local\Temp\ccPTohGt.s 			page 113


 5264 037d 22       		.byte	34
 5265 037e 00       		.byte	0
 5266 037f 00       		.byte	0
 5267 0380 00       		.byte	0
 5268 0381 00       		.byte	0
 5269 0382 00       		.byte	0
 5270 0383 E7       		.byte	-25
 5271 0384 42       		.byte	66
 5272 0385 24       		.byte	36
 5273 0386 24       		.byte	36
 5274 0387 18       		.byte	24
 5275 0388 18       		.byte	24
 5276 0389 18       		.byte	24
 5277 038a 24       		.byte	36
 5278 038b 24       		.byte	36
 5279 038c 42       		.byte	66
 5280 038d E7       		.byte	-25
 5281 038e 00       		.byte	0
 5282 038f 00       		.byte	0
 5283 0390 00       		.byte	0
 5284 0391 00       		.byte	0
 5285 0392 00       		.byte	0
 5286 0393 77       		.byte	119
 5287 0394 22       		.byte	34
 5288 0395 22       		.byte	34
 5289 0396 14       		.byte	20
 5290 0397 14       		.byte	20
 5291 0398 08       		.byte	8
 5292 0399 08       		.byte	8
 5293 039a 08       		.byte	8
 5294 039b 08       		.byte	8
 5295 039c 08       		.byte	8
 5296 039d 1C       		.byte	28
 5297 039e 00       		.byte	0
 5298 039f 00       		.byte	0
 5299 03a0 00       		.byte	0
 5300 03a1 00       		.byte	0
 5301 03a2 00       		.byte	0
 5302 03a3 7E       		.byte	126
 5303 03a4 21       		.byte	33
 5304 03a5 20       		.byte	32
 5305 03a6 10       		.byte	16
 5306 03a7 10       		.byte	16
 5307 03a8 08       		.byte	8
 5308 03a9 04       		.byte	4
 5309 03aa 04       		.byte	4
 5310 03ab 42       		.byte	66
 5311 03ac 42       		.byte	66
 5312 03ad 3F       		.byte	63
 5313 03ae 00       		.byte	0
 5314 03af 00       		.byte	0
 5315 03b0 00       		.byte	0
 5316 03b1 78       		.byte	120
 5317 03b2 08       		.byte	8
 5318 03b3 08       		.byte	8
 5319 03b4 08       		.byte	8
 5320 03b5 08       		.byte	8
GAS LISTING C:\Users\nesre\AppData\Local\Temp\ccPTohGt.s 			page 114


 5321 03b6 08       		.byte	8
 5322 03b7 08       		.byte	8
 5323 03b8 08       		.byte	8
 5324 03b9 08       		.byte	8
 5325 03ba 08       		.byte	8
 5326 03bb 08       		.byte	8
 5327 03bc 08       		.byte	8
 5328 03bd 08       		.byte	8
 5329 03be 78       		.byte	120
 5330 03bf 00       		.byte	0
 5331 03c0 00       		.byte	0
 5332 03c1 00       		.byte	0
 5333 03c2 02       		.byte	2
 5334 03c3 02       		.byte	2
 5335 03c4 04       		.byte	4
 5336 03c5 04       		.byte	4
 5337 03c6 08       		.byte	8
 5338 03c7 08       		.byte	8
 5339 03c8 08       		.byte	8
 5340 03c9 10       		.byte	16
 5341 03ca 10       		.byte	16
 5342 03cb 20       		.byte	32
 5343 03cc 20       		.byte	32
 5344 03cd 20       		.byte	32
 5345 03ce 40       		.byte	64
 5346 03cf 40       		.byte	64
 5347 03d0 00       		.byte	0
 5348 03d1 1E       		.byte	30
 5349 03d2 10       		.byte	16
 5350 03d3 10       		.byte	16
 5351 03d4 10       		.byte	16
 5352 03d5 10       		.byte	16
 5353 03d6 10       		.byte	16
 5354 03d7 10       		.byte	16
 5355 03d8 10       		.byte	16
 5356 03d9 10       		.byte	16
 5357 03da 10       		.byte	16
 5358 03db 10       		.byte	16
 5359 03dc 10       		.byte	16
 5360 03dd 10       		.byte	16
 5361 03de 1E       		.byte	30
 5362 03df 00       		.byte	0
 5363 03e0 00       		.byte	0
 5364 03e1 38       		.byte	56
 5365 03e2 44       		.byte	68
 5366 03e3 00       		.byte	0
 5367 03e4 00       		.byte	0
 5368 03e5 00       		.byte	0
 5369 03e6 00       		.byte	0
 5370 03e7 00       		.byte	0
 5371 03e8 00       		.byte	0
 5372 03e9 00       		.byte	0
 5373 03ea 00       		.byte	0
 5374 03eb 00       		.byte	0
 5375 03ec 00       		.byte	0
 5376 03ed 00       		.byte	0
 5377 03ee 00       		.byte	0
GAS LISTING C:\Users\nesre\AppData\Local\Temp\ccPTohGt.s 			page 115


 5378 03ef 00       		.byte	0
 5379 03f0 00       		.byte	0
 5380 03f1 00       		.byte	0
 5381 03f2 00       		.byte	0
 5382 03f3 00       		.byte	0
 5383 03f4 00       		.byte	0
 5384 03f5 00       		.byte	0
 5385 03f6 00       		.byte	0
 5386 03f7 00       		.byte	0
 5387 03f8 00       		.byte	0
 5388 03f9 00       		.byte	0
 5389 03fa 00       		.byte	0
 5390 03fb 00       		.byte	0
 5391 03fc 00       		.byte	0
 5392 03fd 00       		.byte	0
 5393 03fe 00       		.byte	0
 5394 03ff FF       		.byte	-1
 5395 0400 00       		.byte	0
 5396 0401 06       		.byte	6
 5397 0402 08       		.byte	8
 5398 0403 00       		.byte	0
 5399 0404 00       		.byte	0
 5400 0405 00       		.byte	0
 5401 0406 00       		.byte	0
 5402 0407 00       		.byte	0
 5403 0408 00       		.byte	0
 5404 0409 00       		.byte	0
 5405 040a 00       		.byte	0
 5406 040b 00       		.byte	0
 5407 040c 00       		.byte	0
 5408 040d 00       		.byte	0
 5409 040e 00       		.byte	0
 5410 040f 00       		.byte	0
 5411 0410 00       		.byte	0
 5412 0411 00       		.byte	0
 5413 0412 00       		.byte	0
 5414 0413 00       		.byte	0
 5415 0414 00       		.byte	0
 5416 0415 00       		.byte	0
 5417 0416 00       		.byte	0
 5418 0417 3C       		.byte	60
 5419 0418 42       		.byte	66
 5420 0419 78       		.byte	120
 5421 041a 44       		.byte	68
 5422 041b 42       		.byte	66
 5423 041c 42       		.byte	66
 5424 041d FC       		.byte	-4
 5425 041e 00       		.byte	0
 5426 041f 00       		.byte	0
 5427 0420 00       		.byte	0
 5428 0421 00       		.byte	0
 5429 0422 00       		.byte	0
 5430 0423 03       		.byte	3
 5431 0424 02       		.byte	2
 5432 0425 02       		.byte	2
 5433 0426 02       		.byte	2
 5434 0427 1A       		.byte	26
GAS LISTING C:\Users\nesre\AppData\Local\Temp\ccPTohGt.s 			page 116


 5435 0428 26       		.byte	38
 5436 0429 42       		.byte	66
 5437 042a 42       		.byte	66
 5438 042b 42       		.byte	66
 5439 042c 26       		.byte	38
 5440 042d 1A       		.byte	26
 5441 042e 00       		.byte	0
 5442 042f 00       		.byte	0
 5443 0430 00       		.byte	0
 5444 0431 00       		.byte	0
 5445 0432 00       		.byte	0
 5446 0433 00       		.byte	0
 5447 0434 00       		.byte	0
 5448 0435 00       		.byte	0
 5449 0436 00       		.byte	0
 5450 0437 38       		.byte	56
 5451 0438 44       		.byte	68
 5452 0439 02       		.byte	2
 5453 043a 02       		.byte	2
 5454 043b 02       		.byte	2
 5455 043c 44       		.byte	68
 5456 043d 38       		.byte	56
 5457 043e 00       		.byte	0
 5458 043f 00       		.byte	0
 5459 0440 00       		.byte	0
 5460 0441 00       		.byte	0
 5461 0442 00       		.byte	0
 5462 0443 60       		.byte	96
 5463 0444 40       		.byte	64
 5464 0445 40       		.byte	64
 5465 0446 40       		.byte	64
 5466 0447 78       		.byte	120
 5467 0448 44       		.byte	68
 5468 0449 42       		.byte	66
 5469 044a 42       		.byte	66
 5470 044b 42       		.byte	66
 5471 044c 64       		.byte	100
 5472 044d D8       		.byte	-40
 5473 044e 00       		.byte	0
 5474 044f 00       		.byte	0
 5475 0450 00       		.byte	0
 5476 0451 00       		.byte	0
 5477 0452 00       		.byte	0
 5478 0453 00       		.byte	0
 5479 0454 00       		.byte	0
 5480 0455 00       		.byte	0
 5481 0456 00       		.byte	0
 5482 0457 3C       		.byte	60
 5483 0458 42       		.byte	66
 5484 0459 7E       		.byte	126
 5485 045a 02       		.byte	2
 5486 045b 02       		.byte	2
 5487 045c 42       		.byte	66
 5488 045d 3C       		.byte	60
 5489 045e 00       		.byte	0
 5490 045f 00       		.byte	0
 5491 0460 00       		.byte	0
GAS LISTING C:\Users\nesre\AppData\Local\Temp\ccPTohGt.s 			page 117


 5492 0461 00       		.byte	0
 5493 0462 00       		.byte	0
 5494 0463 F0       		.byte	-16
 5495 0464 88       		.byte	-120
 5496 0465 08       		.byte	8
 5497 0466 08       		.byte	8
 5498 0467 7E       		.byte	126
 5499 0468 08       		.byte	8
 5500 0469 08       		.byte	8
 5501 046a 08       		.byte	8
 5502 046b 08       		.byte	8
 5503 046c 08       		.byte	8
 5504 046d 3E       		.byte	62
 5505 046e 00       		.byte	0
 5506 046f 00       		.byte	0
 5507 0470 00       		.byte	0
 5508 0471 00       		.byte	0
 5509 0472 00       		.byte	0
 5510 0473 00       		.byte	0
 5511 0474 00       		.byte	0
 5512 0475 00       		.byte	0
 5513 0476 00       		.byte	0
 5514 0477 7C       		.byte	124
 5515 0478 22       		.byte	34
 5516 0479 22       		.byte	34
 5517 047a 1C       		.byte	28
 5518 047b 02       		.byte	2
 5519 047c 3C       		.byte	60
 5520 047d 42       		.byte	66
 5521 047e 42       		.byte	66
 5522 047f 3C       		.byte	60
 5523 0480 00       		.byte	0
 5524 0481 00       		.byte	0
 5525 0482 00       		.byte	0
 5526 0483 03       		.byte	3
 5527 0484 02       		.byte	2
 5528 0485 02       		.byte	2
 5529 0486 02       		.byte	2
 5530 0487 3A       		.byte	58
 5531 0488 46       		.byte	70
 5532 0489 42       		.byte	66
 5533 048a 42       		.byte	66
 5534 048b 42       		.byte	66
 5535 048c 42       		.byte	66
 5536 048d E7       		.byte	-25
 5537 048e 00       		.byte	0
 5538 048f 00       		.byte	0
 5539 0490 00       		.byte	0
 5540 0491 00       		.byte	0
 5541 0492 00       		.byte	0
 5542 0493 0C       		.byte	12
 5543 0494 0C       		.byte	12
 5544 0495 00       		.byte	0
 5545 0496 00       		.byte	0
 5546 0497 0E       		.byte	14
 5547 0498 08       		.byte	8
 5548 0499 08       		.byte	8
GAS LISTING C:\Users\nesre\AppData\Local\Temp\ccPTohGt.s 			page 118


 5549 049a 08       		.byte	8
 5550 049b 08       		.byte	8
 5551 049c 08       		.byte	8
 5552 049d 3E       		.byte	62
 5553 049e 00       		.byte	0
 5554 049f 00       		.byte	0
 5555 04a0 00       		.byte	0
 5556 04a1 00       		.byte	0
 5557 04a2 00       		.byte	0
 5558 04a3 30       		.byte	48
 5559 04a4 30       		.byte	48
 5560 04a5 00       		.byte	0
 5561 04a6 00       		.byte	0
 5562 04a7 38       		.byte	56
 5563 04a8 20       		.byte	32
 5564 04a9 20       		.byte	32
 5565 04aa 20       		.byte	32
 5566 04ab 20       		.byte	32
 5567 04ac 20       		.byte	32
 5568 04ad 20       		.byte	32
 5569 04ae 22       		.byte	34
 5570 04af 1E       		.byte	30
 5571 04b0 00       		.byte	0
 5572 04b1 00       		.byte	0
 5573 04b2 00       		.byte	0
 5574 04b3 03       		.byte	3
 5575 04b4 02       		.byte	2
 5576 04b5 02       		.byte	2
 5577 04b6 02       		.byte	2
 5578 04b7 72       		.byte	114
 5579 04b8 12       		.byte	18
 5580 04b9 0A       		.byte	10
 5581 04ba 16       		.byte	22
 5582 04bb 12       		.byte	18
 5583 04bc 22       		.byte	34
 5584 04bd 77       		.byte	119
 5585 04be 00       		.byte	0
 5586 04bf 00       		.byte	0
 5587 04c0 00       		.byte	0
 5588 04c1 00       		.byte	0
 5589 04c2 00       		.byte	0
 5590 04c3 0E       		.byte	14
 5591 04c4 08       		.byte	8
 5592 04c5 08       		.byte	8
 5593 04c6 08       		.byte	8
 5594 04c7 08       		.byte	8
 5595 04c8 08       		.byte	8
 5596 04c9 08       		.byte	8
 5597 04ca 08       		.byte	8
 5598 04cb 08       		.byte	8
 5599 04cc 08       		.byte	8
 5600 04cd 3E       		.byte	62
 5601 04ce 00       		.byte	0
 5602 04cf 00       		.byte	0
 5603 04d0 00       		.byte	0
 5604 04d1 00       		.byte	0
 5605 04d2 00       		.byte	0
GAS LISTING C:\Users\nesre\AppData\Local\Temp\ccPTohGt.s 			page 119


 5606 04d3 00       		.byte	0
 5607 04d4 00       		.byte	0
 5608 04d5 00       		.byte	0
 5609 04d6 00       		.byte	0
 5610 04d7 7F       		.byte	127
 5611 04d8 92       		.byte	-110
 5612 04d9 92       		.byte	-110
 5613 04da 92       		.byte	-110
 5614 04db 92       		.byte	-110
 5615 04dc 92       		.byte	-110
 5616 04dd B7       		.byte	-73
 5617 04de 00       		.byte	0
 5618 04df 00       		.byte	0
 5619 04e0 00       		.byte	0
 5620 04e1 00       		.byte	0
 5621 04e2 00       		.byte	0
 5622 04e3 00       		.byte	0
 5623 04e4 00       		.byte	0
 5624 04e5 00       		.byte	0
 5625 04e6 00       		.byte	0
 5626 04e7 3B       		.byte	59
 5627 04e8 46       		.byte	70
 5628 04e9 42       		.byte	66
 5629 04ea 42       		.byte	66
 5630 04eb 42       		.byte	66
 5631 04ec 42       		.byte	66
 5632 04ed E7       		.byte	-25
 5633 04ee 00       		.byte	0
 5634 04ef 00       		.byte	0
 5635 04f0 00       		.byte	0
 5636 04f1 00       		.byte	0
 5637 04f2 00       		.byte	0
 5638 04f3 00       		.byte	0
 5639 04f4 00       		.byte	0
 5640 04f5 00       		.byte	0
 5641 04f6 00       		.byte	0
 5642 04f7 3C       		.byte	60
 5643 04f8 42       		.byte	66
 5644 04f9 42       		.byte	66
 5645 04fa 42       		.byte	66
 5646 04fb 42       		.byte	66
 5647 04fc 42       		.byte	66
 5648 04fd 3C       		.byte	60
 5649 04fe 00       		.byte	0
 5650 04ff 00       		.byte	0
 5651 0500 00       		.byte	0
 5652 0501 00       		.byte	0
 5653 0502 00       		.byte	0
 5654 0503 00       		.byte	0
 5655 0504 00       		.byte	0
 5656 0505 00       		.byte	0
 5657 0506 00       		.byte	0
 5658 0507 1B       		.byte	27
 5659 0508 26       		.byte	38
 5660 0509 42       		.byte	66
 5661 050a 42       		.byte	66
 5662 050b 42       		.byte	66
GAS LISTING C:\Users\nesre\AppData\Local\Temp\ccPTohGt.s 			page 120


 5663 050c 22       		.byte	34
 5664 050d 1E       		.byte	30
 5665 050e 02       		.byte	2
 5666 050f 07       		.byte	7
 5667 0510 00       		.byte	0
 5668 0511 00       		.byte	0
 5669 0512 00       		.byte	0
 5670 0513 00       		.byte	0
 5671 0514 00       		.byte	0
 5672 0515 00       		.byte	0
 5673 0516 00       		.byte	0
 5674 0517 78       		.byte	120
 5675 0518 44       		.byte	68
 5676 0519 42       		.byte	66
 5677 051a 42       		.byte	66
 5678 051b 42       		.byte	66
 5679 051c 44       		.byte	68
 5680 051d 78       		.byte	120
 5681 051e 40       		.byte	64
 5682 051f E0       		.byte	-32
 5683 0520 00       		.byte	0
 5684 0521 00       		.byte	0
 5685 0522 00       		.byte	0
 5686 0523 00       		.byte	0
 5687 0524 00       		.byte	0
 5688 0525 00       		.byte	0
 5689 0526 00       		.byte	0
 5690 0527 77       		.byte	119
 5691 0528 4C       		.byte	76
 5692 0529 04       		.byte	4
 5693 052a 04       		.byte	4
 5694 052b 04       		.byte	4
 5695 052c 04       		.byte	4
 5696 052d 1F       		.byte	31
 5697 052e 00       		.byte	0
 5698 052f 00       		.byte	0
 5699 0530 00       		.byte	0
 5700 0531 00       		.byte	0
 5701 0532 00       		.byte	0
 5702 0533 00       		.byte	0
 5703 0534 00       		.byte	0
 5704 0535 00       		.byte	0
 5705 0536 00       		.byte	0
 5706 0537 7C       		.byte	124
 5707 0538 42       		.byte	66
 5708 0539 02       		.byte	2
 5709 053a 3C       		.byte	60
 5710 053b 40       		.byte	64
 5711 053c 42       		.byte	66
 5712 053d 3E       		.byte	62
 5713 053e 00       		.byte	0
 5714 053f 00       		.byte	0
 5715 0540 00       		.byte	0
 5716 0541 00       		.byte	0
 5717 0542 00       		.byte	0
 5718 0543 00       		.byte	0
 5719 0544 00       		.byte	0
GAS LISTING C:\Users\nesre\AppData\Local\Temp\ccPTohGt.s 			page 121


 5720 0545 08       		.byte	8
 5721 0546 08       		.byte	8
 5722 0547 3E       		.byte	62
 5723 0548 08       		.byte	8
 5724 0549 08       		.byte	8
 5725 054a 08       		.byte	8
 5726 054b 08       		.byte	8
 5727 054c 08       		.byte	8
 5728 054d 30       		.byte	48
 5729 054e 00       		.byte	0
 5730 054f 00       		.byte	0
 5731 0550 00       		.byte	0
 5732 0551 00       		.byte	0
 5733 0552 00       		.byte	0
 5734 0553 00       		.byte	0
 5735 0554 00       		.byte	0
 5736 0555 00       		.byte	0
 5737 0556 00       		.byte	0
 5738 0557 63       		.byte	99
 5739 0558 42       		.byte	66
 5740 0559 42       		.byte	66
 5741 055a 42       		.byte	66
 5742 055b 42       		.byte	66
 5743 055c 62       		.byte	98
 5744 055d DC       		.byte	-36
 5745 055e 00       		.byte	0
 5746 055f 00       		.byte	0
 5747 0560 00       		.byte	0
 5748 0561 00       		.byte	0
 5749 0562 00       		.byte	0
 5750 0563 00       		.byte	0
 5751 0564 00       		.byte	0
 5752 0565 00       		.byte	0
 5753 0566 00       		.byte	0
 5754 0567 E7       		.byte	-25
 5755 0568 42       		.byte	66
 5756 0569 24       		.byte	36
 5757 056a 24       		.byte	36
 5758 056b 14       		.byte	20
 5759 056c 08       		.byte	8
 5760 056d 08       		.byte	8
 5761 056e 00       		.byte	0
 5762 056f 00       		.byte	0
 5763 0570 00       		.byte	0
 5764 0571 00       		.byte	0
 5765 0572 00       		.byte	0
 5766 0573 00       		.byte	0
 5767 0574 00       		.byte	0
 5768 0575 00       		.byte	0
 5769 0576 00       		.byte	0
 5770 0577 EB       		.byte	-21
 5771 0578 49       		.byte	73
 5772 0579 49       		.byte	73
 5773 057a 55       		.byte	85
 5774 057b 55       		.byte	85
 5775 057c 22       		.byte	34
 5776 057d 22       		.byte	34
GAS LISTING C:\Users\nesre\AppData\Local\Temp\ccPTohGt.s 			page 122


 5777 057e 00       		.byte	0
 5778 057f 00       		.byte	0
 5779 0580 00       		.byte	0
 5780 0581 00       		.byte	0
 5781 0582 00       		.byte	0
 5782 0583 00       		.byte	0
 5783 0584 00       		.byte	0
 5784 0585 00       		.byte	0
 5785 0586 00       		.byte	0
 5786 0587 76       		.byte	118
 5787 0588 24       		.byte	36
 5788 0589 18       		.byte	24
 5789 058a 18       		.byte	24
 5790 058b 18       		.byte	24
 5791 058c 24       		.byte	36
 5792 058d 6E       		.byte	110
 5793 058e 00       		.byte	0
 5794 058f 00       		.byte	0
 5795 0590 00       		.byte	0
 5796 0591 00       		.byte	0
 5797 0592 00       		.byte	0
 5798 0593 00       		.byte	0
 5799 0594 00       		.byte	0
 5800 0595 00       		.byte	0
 5801 0596 00       		.byte	0
 5802 0597 E7       		.byte	-25
 5803 0598 42       		.byte	66
 5804 0599 24       		.byte	36
 5805 059a 24       		.byte	36
 5806 059b 14       		.byte	20
 5807 059c 18       		.byte	24
 5808 059d 08       		.byte	8
 5809 059e 08       		.byte	8
 5810 059f 07       		.byte	7
 5811 05a0 00       		.byte	0
 5812 05a1 00       		.byte	0
 5813 05a2 00       		.byte	0
 5814 05a3 00       		.byte	0
 5815 05a4 00       		.byte	0
 5816 05a5 00       		.byte	0
 5817 05a6 00       		.byte	0
 5818 05a7 7E       		.byte	126
 5819 05a8 22       		.byte	34
 5820 05a9 10       		.byte	16
 5821 05aa 08       		.byte	8
 5822 05ab 08       		.byte	8
 5823 05ac 44       		.byte	68
 5824 05ad 7E       		.byte	126
 5825 05ae 00       		.byte	0
 5826 05af 00       		.byte	0
 5827 05b0 00       		.byte	0
 5828 05b1 C0       		.byte	-64
 5829 05b2 20       		.byte	32
 5830 05b3 20       		.byte	32
 5831 05b4 20       		.byte	32
 5832 05b5 20       		.byte	32
 5833 05b6 20       		.byte	32
GAS LISTING C:\Users\nesre\AppData\Local\Temp\ccPTohGt.s 			page 123


 5834 05b7 10       		.byte	16
 5835 05b8 20       		.byte	32
 5836 05b9 20       		.byte	32
