GAS LISTING C:\Users\nesre\AppData\Local\Temp\cc58mVz5.s 			page 1


   1              		.file	"vibrator.c"
   2              		.option nopic
   3              		.attribute arch, "rv32i2p0_m2p0_a2p0_c2p0"
   4              		.attribute unaligned_access, 0
   5              		.attribute stack_align, 16
   6              		.text
   7              	.Ltext0:
   8              		.cfi_sections	.debug_frame
   9              		.section	.text.vibrator_init,"ax",@progbits
  10              		.align	1
  11              		.globl	vibrator_init
  13              	vibrator_init:
  14              	.LFB2:
  15              		.file 1 "vibrator.c"
   1:vibrator.c    **** #include "gd32vf103.h"
   2:vibrator.c    **** #include "vibrator.h"
   3:vibrator.c    **** 
   4:vibrator.c    **** void vibrator_init() {
  16              		.loc 1 4 22
  17              		.cfi_startproc
   5:vibrator.c    ****     rcu_periph_clock_enable(RCU_GPIOB);
  18              		.loc 1 5 5
   4:vibrator.c    ****     rcu_periph_clock_enable(RCU_GPIOB);
  19              		.loc 1 4 22 is_stmt 0
  20 0000 4111     		addi	sp,sp,-16
  21              	.LCFI0:
  22              		.cfi_def_cfa_offset 16
  23              		.loc 1 5 5
  24 0002 13053060 		li	a0,1539
   4:vibrator.c    ****     rcu_periph_clock_enable(RCU_GPIOB);
  25              		.loc 1 4 22
  26 0006 06C6     		sw	ra,12(sp)
  27 0008 22C4     		sw	s0,8(sp)
  28              		.cfi_offset 1, -4
  29              		.cfi_offset 8, -8
  30              		.loc 1 5 5
  31 000a 97000000 		call	rcu_periph_clock_enable
  31      E7800000 
  32              	.LVL0:
   6:vibrator.c    ****     gpio_init(GPIOB, GPIO_MODE_OUT_PP, GPIO_OSPEED_50MHZ, GPIO_PIN_14);
  33              		.loc 1 6 5 is_stmt 1
  34 0012 37140140 		li	s0,1073811456
  35 0016 130504C0 		addi	a0,s0,-1024
  36 001a C145     		li	a1,16
  37 001c 9166     		li	a3,16384
  38 001e 0D46     		li	a2,3
  39 0020 97000000 		call	gpio_init
  39      E7800000 
  40              	.LVL1:
   7:vibrator.c    ****     gpio_bit_reset(GPIOB, GPIO_PIN_14);
  41              		.loc 1 7 5
  42 0028 130504C0 		addi	a0,s0,-1024
   8:vibrator.c    **** }
  43              		.loc 1 8 1 is_stmt 0
  44 002c 2244     		lw	s0,8(sp)
  45              		.cfi_restore 8
  46 002e B240     		lw	ra,12(sp)
GAS LISTING C:\Users\nesre\AppData\Local\Temp\cc58mVz5.s 			page 2


  47              		.cfi_restore 1
   7:vibrator.c    ****     gpio_bit_reset(GPIOB, GPIO_PIN_14);
  48              		.loc 1 7 5
  49 0030 9165     		li	a1,16384
  50              		.loc 1 8 1
  51 0032 4101     		addi	sp,sp,16
  52              	.LCFI1:
  53              		.cfi_def_cfa_offset 0
   7:vibrator.c    ****     gpio_bit_reset(GPIOB, GPIO_PIN_14);
  54              		.loc 1 7 5
  55 0034 17030000 		tail	gpio_bit_reset
  55      67000300 
  56              	.LVL2:
  57              		.cfi_endproc
  58              	.LFE2:
  60              		.section	.text.vibrator_on,"ax",@progbits
  61              		.align	1
  62              		.globl	vibrator_on
  64              	vibrator_on:
  65              	.LFB3:
   9:vibrator.c    **** 
  10:vibrator.c    **** void vibrator_on() {
  66              		.loc 1 10 20 is_stmt 1
  67              		.cfi_startproc
  11:vibrator.c    ****     gpio_bit_set(GPIOB, GPIO_PIN_14);
  68              		.loc 1 11 5
  69 0000 37150140 		li	a0,1073811456
  70 0004 9165     		li	a1,16384
  71 0006 130505C0 		addi	a0,a0,-1024
  72 000a 17030000 		tail	gpio_bit_set
  72      67000300 
  73              	.LVL3:
  74              		.cfi_endproc
  75              	.LFE3:
  77              		.section	.text.vibrator_off,"ax",@progbits
  78              		.align	1
  79              		.globl	vibrator_off
  81              	vibrator_off:
  82              	.LFB4:
  12:vibrator.c    **** }
  13:vibrator.c    **** 
  14:vibrator.c    **** void vibrator_off() {
  83              		.loc 1 14 21
  84              		.cfi_startproc
  15:vibrator.c    ****     gpio_bit_reset(GPIOB, GPIO_PIN_14);
  85              		.loc 1 15 5
  86 0000 37150140 		li	a0,1073811456
  87 0004 9165     		li	a1,16384
  88 0006 130505C0 		addi	a0,a0,-1024
  89 000a 17030000 		tail	gpio_bit_reset
  89      67000300 
  90              	.LVL4:
  91              		.cfi_endproc
  92              	.LFE4:
  94              		.text
  95              	.Letext0:
  96              		.file 2 "c:\\users\\nesre\\documents\\mikro\\toolchain-gd32v-v202-win\\compiler\\riscv64-unknown-e
GAS LISTING C:\Users\nesre\AppData\Local\Temp\cc58mVz5.s 			page 3


  97              		.file 3 "c:\\users\\nesre\\documents\\mikro\\toolchain-gd32v-v202-win\\compiler\\riscv64-unknown-e
  98              		.file 4 "./../../firmware/GD32VF103_standard_peripheral/Include/gd32vf103_gpio.h"
  99              		.file 5 "./../../firmware/GD32VF103_standard_peripheral/Include/gd32vf103_rcu.h"
 100              		.file 6 "./../../firmware/GD32VF103_standard_peripheral/system_gd32vf103.h"
GAS LISTING C:\Users\nesre\AppData\Local\Temp\cc58mVz5.s 			page 4

